---
triple:          'arm64-apple-darwin'
binary-path:     '/Users/parkjuhyeon/Documents/OOP_proj/Restaurant-Recommendation/src-cpp/main'
relocations:
  - { offsetInCU: 0xA9A2, offset: 0xA9A2, size: 0x8, addend: 0x0, symName: __ZNSt3__124__put_character_sequenceB8ue170006IcNS_11char_traitsIcEEEERNS_13basic_ostreamIT_T0_EES7_PKS4_m, symObjAddr: 0x2F78, symBinAddr: 0x100003CC8, symSize: 0x1F4 }
  - { offsetInCU: 0xBEC7, offset: 0xBEC7, size: 0x8, addend: 0x0, symName: __ZNSt3__16copy_nB8ue170006IPKcmPcEENS_9enable_ifIXsr37__has_random_access_iterator_categoryIT_EE5valueET1_E4typeES5_T0_S6_, symObjAddr: 0xDA8C, symBinAddr: 0x10000E7DC, symSize: 0x44 }
  - { offsetInCU: 0xE8B7, offset: 0xE8B7, size: 0x8, addend: 0x0, symName: __ZNSt3__1lsB8ue170006INS_11char_traitsIcEEEERNS_13basic_ostreamIcT_EES6_PKc, symObjAddr: 0x21E0, symBinAddr: 0x100002F30, symSize: 0x48 }
  - { offsetInCU: 0xE8FD, offset: 0xE8FD, size: 0x8, addend: 0x0, symName: __ZNSt3__14endlB8ue170006IcNS_11char_traitsIcEEEERNS_13basic_ostreamIT_T0_EES7_, symObjAddr: 0x2254, symBinAddr: 0x100002FA4, symSize: 0x58 }
  - { offsetInCU: 0xE93D, offset: 0xE93D, size: 0x8, addend: 0x0, symName: __ZNSt3__130__libcpp_is_constant_evaluatedB8ue170006Ev, symObjAddr: 0x2868, symBinAddr: 0x1000035B8, symSize: 0xC }
  - { offsetInCU: 0xE95A, offset: 0xE95A, size: 0x8, addend: 0x0, symName: __ZNSt3__117__libcpp_allocateB8ue170006Emm, symObjAddr: 0x2B60, symBinAddr: 0x1000038B0, symSize: 0x28 }
  - { offsetInCU: 0xE997, offset: 0xE997, size: 0x8, addend: 0x0, symName: __ZNSt3__121__libcpp_operator_newB8ue170006IJmEEEPvDpT_, symObjAddr: 0x2B9C, symBinAddr: 0x1000038EC, symSize: 0x24 }
  - { offsetInCU: 0xE9D0, offset: 0xE9D0, size: 0x8, addend: 0x0, symName: __ZNSt3__112__to_addressB8ue170006IKcEEPT_S3_, symObjAddr: 0x2DA4, symBinAddr: 0x100003AF4, symSize: 0x14 }
  - { offsetInCU: 0xEA38, offset: 0xEA38, size: 0x8, addend: 0x0, symName: __ZNSt3__116__pad_and_outputB8ue170006IcNS_11char_traitsIcEEEENS_19ostreambuf_iteratorIT_T0_EES6_PKS4_S8_S8_RNS_8ios_baseES4_, symObjAddr: 0x31D0, symBinAddr: 0x100003F20, symSize: 0x248 }
  - { offsetInCU: 0xEB07, offset: 0xEB07, size: 0x8, addend: 0x0, symName: __ZNSt3__19use_facetB8ue170006INS_5ctypeIcEEEERKT_RKNS_6localeE, symObjAddr: 0x374C, symBinAddr: 0x10000449C, symSize: 0x2C }
  - { offsetInCU: 0xEEE5, offset: 0xEEE5, size: 0x8, addend: 0x0, symName: __ZNSt3__118__constexpr_strlenB8ue170006EPKc, symObjAddr: 0x37B0, symBinAddr: 0x100004500, symSize: 0x24 }
  - { offsetInCU: 0xEF11, offset: 0xEF11, size: 0x8, addend: 0x0, symName: __ZNSt3__112__to_addressB8ue170006IP7CommandEEPT_S4_, symObjAddr: 0x4340, symBinAddr: 0x100005090, symSize: 0x14 }
  - { offsetInCU: 0xEF46, offset: 0xEF46, size: 0x8, addend: 0x0, symName: __ZNSt3__119__libcpp_deallocateB8ue170006EPvmm, symObjAddr: 0x4448, symBinAddr: 0x100005198, symSize: 0x30 }
  - { offsetInCU: 0xEF8E, offset: 0xEF8E, size: 0x8, addend: 0x0, symName: __ZNSt3__127__do_deallocate_handle_sizeB8ue170006IJEEEvPvmDpT_, symObjAddr: 0x4478, symBinAddr: 0x1000051C8, symSize: 0x28 }
  - { offsetInCU: 0xEFCC, offset: 0xEFCC, size: 0x8, addend: 0x0, symName: __ZNSt3__124__libcpp_operator_deleteB8ue170006IJPvEEEvDpT_, symObjAddr: 0x44A0, symBinAddr: 0x1000051F0, symSize: 0x24 }
  - { offsetInCU: 0xF001, offset: 0xF001, size: 0x8, addend: 0x0, symName: __ZNSt3__13maxB8ue170006ImEERKT_S3_S3_, symObjAddr: 0x4BFC, symBinAddr: 0x10000594C, symSize: 0x2C }
  - { offsetInCU: 0xF044, offset: 0xF044, size: 0x8, addend: 0x0, symName: __ZNSt3__13minB8ue170006ImEERKT_S3_S3_, symObjAddr: 0x4C28, symBinAddr: 0x100005978, symSize: 0x2C }
  - { offsetInCU: 0xF288, offset: 0xF288, size: 0x8, addend: 0x0, symName: __ZNSt3__13minB8ue170006ImNS_6__lessIvvEEEERKT_S5_S5_T0_, symObjAddr: 0x4CB4, symBinAddr: 0x100005A04, symSize: 0x54 }
  - { offsetInCU: 0xF327, offset: 0xF327, size: 0x8, addend: 0x0, symName: __ZNSt3__120__throw_length_errorB8ue170006EPKc, symObjAddr: 0x4D90, symBinAddr: 0x100005AE0, symSize: 0x64 }
  - { offsetInCU: 0xF351, offset: 0xF351, size: 0x8, addend: 0x0, symName: __ZNSt3__13maxB8ue170006ImNS_6__lessIvvEEEERKT_S5_S5_T0_, symObjAddr: 0x4E74, symBinAddr: 0x100005BC4, symSize: 0x54 }
  - { offsetInCU: 0xF3AB, offset: 0xF3AB, size: 0x8, addend: 0x0, symName: __ZNSt3__119__allocate_at_leastB8ue170006INS_9allocatorIP7CommandEEEENS_19__allocation_resultINS_16allocator_traitsIT_E7pointerEEERS7_m, symObjAddr: 0x4FD8, symBinAddr: 0x100005D28, symSize: 0x40 }
  - { offsetInCU: 0xF3EE, offset: 0xF3EE, size: 0x8, addend: 0x0, symName: __ZNSt3__142__uninitialized_allocator_move_if_noexceptB8ue170006INS_9allocatorIP7CommandEENS_16reverse_iteratorIPS3_EES7_S3_vEET1_RT_T0_SB_S8_, symObjAddr: 0x51B8, symBinAddr: 0x100005F08, symSize: 0xE8 }
  - { offsetInCU: 0xF46B, offset: 0xF46B, size: 0x8, addend: 0x0, symName: __ZNSt3__14swapB8ue170006IPP7CommandEEvRT_S5_, symObjAddr: 0x52EC, symBinAddr: 0x10000603C, symSize: 0x3C }
  - { offsetInCU: 0xF4BC, offset: 0xF4BC, size: 0x8, addend: 0x0, symName: __ZNSt3__1neB8ue170006IPP7CommandS3_EEbRKNS_16reverse_iteratorIT_EERKNS4_IT0_EE, symObjAddr: 0x53D4, symBinAddr: 0x100006124, symSize: 0x48 }
  - { offsetInCU: 0xF52D, offset: 0xF52D, size: 0x8, addend: 0x0, symName: __ZNSt3__114__construct_atB8ue170006IP7CommandJS2_EPS2_EEPT_S5_DpOT0_, symObjAddr: 0x541C, symBinAddr: 0x10000616C, symSize: 0x2C }
  - { offsetInCU: 0xF59D, offset: 0xF59D, size: 0x8, addend: 0x0, symName: __ZNSt3__112__to_addressB8ue170006INS_16reverse_iteratorIPP7CommandEEvEEu7__decayIDTclsr19__to_address_helperIT_EE6__callclsr3stdE7declvalIRKS6_EEEEES8_, symObjAddr: 0x5448, symBinAddr: 0x100006198, symSize: 0x24 }
  - { offsetInCU: 0xF5D3, offset: 0xF5D3, size: 0x8, addend: 0x0, symName: __ZNSt3__14moveB8ue170006INS_16reverse_iteratorIPP7CommandEES5_EET0_T_S7_S6_, symObjAddr: 0x54B4, symBinAddr: 0x100006204, symSize: 0x78 }
  - { offsetInCU: 0xF656, offset: 0xF656, size: 0x8, addend: 0x0, symName: __ZNSt3__16__moveB8ue170006INS_17_ClassicAlgPolicyENS_16reverse_iteratorIPP7CommandEES6_S6_EENS_4pairIT0_T2_EES8_T1_S9_, symObjAddr: 0x559C, symBinAddr: 0x1000062EC, symSize: 0x64 }
  - { offsetInCU: 0xF6C2, offset: 0xF6C2, size: 0x8, addend: 0x0, symName: __ZNSt3__123__dispatch_copy_or_moveB8ue170006INS_17_ClassicAlgPolicyENS_11__move_loopIS1_EENS_14__move_trivialENS_16reverse_iteratorIPP7CommandEES9_S9_EENS_4pairIT2_T4_EESB_T3_SC_, symObjAddr: 0x5600, symBinAddr: 0x100006350, symSize: 0x64 }
  - { offsetInCU: 0xF740, offset: 0xF740, size: 0x8, addend: 0x0, symName: __ZNSt3__121__unwrap_and_dispatchB8ue170006INS_10__overloadINS_11__move_loopINS_17_ClassicAlgPolicyEEENS_14__move_trivialEEENS_16reverse_iteratorIPP7CommandEESB_SB_Li0EEENS_4pairIT0_T2_EESD_T1_SE_, symObjAddr: 0x5664, symBinAddr: 0x1000063B4, symSize: 0x12C }
  - { offsetInCU: 0xF7D0, offset: 0xF7D0, size: 0x8, addend: 0x0, symName: __ZNSt3__114__unwrap_rangeB8ue170006INS_16reverse_iteratorIPP7CommandEES5_EENS_4pairIT0_S7_EET_S9_, symObjAddr: 0x5790, symBinAddr: 0x1000064E0, symSize: 0x84 }
  - { offsetInCU: 0xFA20, offset: 0xFA20, size: 0x8, addend: 0x0, symName: __ZNSt3__113__unwrap_iterB8ue170006INS_16reverse_iteratorIPP7CommandEENS_18__unwrap_iter_implIS5_Lb0EEELi0EEEDTclsrT0_8__unwrapclsr3stdE7declvalIT_EEEES9_, symObjAddr: 0x58B4, symBinAddr: 0x100006604, symSize: 0x44 }
  - { offsetInCU: 0xFA64, offset: 0xFA64, size: 0x8, addend: 0x0, symName: __ZNSt3__19make_pairB8ue170006INS_16reverse_iteratorIPP7CommandEES5_EENS_4pairINS_18__unwrap_ref_decayIT_E4typeENS7_IT0_E4typeEEEOS8_OSB_, symObjAddr: 0x58F8, symBinAddr: 0x100006648, symSize: 0x38 }
  - { offsetInCU: 0xFAB3, offset: 0xFAB3, size: 0x8, addend: 0x0, symName: __ZNSt3__114__rewrap_rangeB8ue170006INS_16reverse_iteratorIPP7CommandEES5_EET_S6_T0_, symObjAddr: 0x5930, symBinAddr: 0x100006680, symSize: 0x5C }
  - { offsetInCU: 0xFAFF, offset: 0xFAFF, size: 0x8, addend: 0x0, symName: __ZNSt3__113__rewrap_iterB8ue170006INS_16reverse_iteratorIPP7CommandEES5_NS_18__unwrap_iter_implIS5_Lb0EEEEET_S8_T0_, symObjAddr: 0x598C, symBinAddr: 0x1000066DC, symSize: 0x88 }
  - { offsetInCU: 0xFCFA, offset: 0xFCFA, size: 0x8, addend: 0x0, symName: __ZNSt3__112__to_addressB8ue170006IP13PrintOnlyPageEEPT_S4_, symObjAddr: 0x6388, symBinAddr: 0x1000070D8, symSize: 0x14 }
  - { offsetInCU: 0xFD2F, offset: 0xFD2F, size: 0x8, addend: 0x0, symName: __ZNSt3__119__allocate_at_leastB8ue170006INS_9allocatorIP13PrintOnlyPageEEEENS_19__allocation_resultINS_16allocator_traitsIT_E7pointerEEERS7_m, symObjAddr: 0x6D00, symBinAddr: 0x100007A50, symSize: 0x40 }
  - { offsetInCU: 0xFD72, offset: 0xFD72, size: 0x8, addend: 0x0, symName: __ZNSt3__142__uninitialized_allocator_move_if_noexceptB8ue170006INS_9allocatorIP13PrintOnlyPageEENS_16reverse_iteratorIPS3_EES7_S3_vEET1_RT_T0_SB_S8_, symObjAddr: 0x6EE0, symBinAddr: 0x100007C30, symSize: 0xE8 }
  - { offsetInCU: 0xFDEF, offset: 0xFDEF, size: 0x8, addend: 0x0, symName: __ZNSt3__14swapB8ue170006IPP13PrintOnlyPageEEvRT_S5_, symObjAddr: 0x7014, symBinAddr: 0x100007D64, symSize: 0x3C }
  - { offsetInCU: 0xFE40, offset: 0xFE40, size: 0x8, addend: 0x0, symName: __ZNSt3__1neB8ue170006IPP13PrintOnlyPageS3_EEbRKNS_16reverse_iteratorIT_EERKNS4_IT0_EE, symObjAddr: 0x70FC, symBinAddr: 0x100007E4C, symSize: 0x48 }
  - { offsetInCU: 0xFEB1, offset: 0xFEB1, size: 0x8, addend: 0x0, symName: __ZNSt3__114__construct_atB8ue170006IP13PrintOnlyPageJS2_EPS2_EEPT_S5_DpOT0_, symObjAddr: 0x7144, symBinAddr: 0x100007E94, symSize: 0x2C }
  - { offsetInCU: 0xFF21, offset: 0xFF21, size: 0x8, addend: 0x0, symName: __ZNSt3__112__to_addressB8ue170006INS_16reverse_iteratorIPP13PrintOnlyPageEEvEEu7__decayIDTclsr19__to_address_helperIT_EE6__callclsr3stdE7declvalIRKS6_EEEEES8_, symObjAddr: 0x7170, symBinAddr: 0x100007EC0, symSize: 0x24 }
  - { offsetInCU: 0xFF57, offset: 0xFF57, size: 0x8, addend: 0x0, symName: __ZNSt3__14moveB8ue170006INS_16reverse_iteratorIPP13PrintOnlyPageEES5_EET0_T_S7_S6_, symObjAddr: 0x71DC, symBinAddr: 0x100007F2C, symSize: 0x78 }
  - { offsetInCU: 0xFFDA, offset: 0xFFDA, size: 0x8, addend: 0x0, symName: __ZNSt3__16__moveB8ue170006INS_17_ClassicAlgPolicyENS_16reverse_iteratorIPP13PrintOnlyPageEES6_S6_EENS_4pairIT0_T2_EES8_T1_S9_, symObjAddr: 0x72C4, symBinAddr: 0x100008014, symSize: 0x64 }
  - { offsetInCU: 0x10046, offset: 0x10046, size: 0x8, addend: 0x0, symName: __ZNSt3__123__dispatch_copy_or_moveB8ue170006INS_17_ClassicAlgPolicyENS_11__move_loopIS1_EENS_14__move_trivialENS_16reverse_iteratorIPP13PrintOnlyPageEES9_S9_EENS_4pairIT2_T4_EESB_T3_SC_, symObjAddr: 0x7328, symBinAddr: 0x100008078, symSize: 0x64 }
  - { offsetInCU: 0x100C4, offset: 0x100C4, size: 0x8, addend: 0x0, symName: __ZNSt3__121__unwrap_and_dispatchB8ue170006INS_10__overloadINS_11__move_loopINS_17_ClassicAlgPolicyEEENS_14__move_trivialEEENS_16reverse_iteratorIPP13PrintOnlyPageEESB_SB_Li0EEENS_4pairIT0_T2_EESD_T1_SE_, symObjAddr: 0x738C, symBinAddr: 0x1000080DC, symSize: 0x12C }
  - { offsetInCU: 0x10154, offset: 0x10154, size: 0x8, addend: 0x0, symName: __ZNSt3__114__unwrap_rangeB8ue170006INS_16reverse_iteratorIPP13PrintOnlyPageEES5_EENS_4pairIT0_S7_EET_S9_, symObjAddr: 0x74B8, symBinAddr: 0x100008208, symSize: 0x84 }
  - { offsetInCU: 0x1024D, offset: 0x1024D, size: 0x8, addend: 0x0, symName: __ZNSt3__113__unwrap_iterB8ue170006INS_16reverse_iteratorIPP13PrintOnlyPageEENS_18__unwrap_iter_implIS5_Lb0EEELi0EEEDTclsrT0_8__unwrapclsr3stdE7declvalIT_EEEES9_, symObjAddr: 0x75DC, symBinAddr: 0x10000832C, symSize: 0x44 }
  - { offsetInCU: 0x10291, offset: 0x10291, size: 0x8, addend: 0x0, symName: __ZNSt3__19make_pairB8ue170006INS_16reverse_iteratorIPP13PrintOnlyPageEES5_EENS_4pairINS_18__unwrap_ref_decayIT_E4typeENS7_IT0_E4typeEEEOS8_OSB_, symObjAddr: 0x7620, symBinAddr: 0x100008370, symSize: 0x38 }
  - { offsetInCU: 0x102E0, offset: 0x102E0, size: 0x8, addend: 0x0, symName: __ZNSt3__114__rewrap_rangeB8ue170006INS_16reverse_iteratorIPP13PrintOnlyPageEES5_EET_S6_T0_, symObjAddr: 0x7658, symBinAddr: 0x1000083A8, symSize: 0x5C }
  - { offsetInCU: 0x1032C, offset: 0x1032C, size: 0x8, addend: 0x0, symName: __ZNSt3__113__rewrap_iterB8ue170006INS_16reverse_iteratorIPP13PrintOnlyPageEES5_NS_18__unwrap_iter_implIS5_Lb0EEEEET_S8_T0_, symObjAddr: 0x76B4, symBinAddr: 0x100008404, symSize: 0x88 }
  - { offsetInCU: 0x103ED, offset: 0x103ED, size: 0x8, addend: 0x0, symName: __ZNSt3__1lsB8ue170006IcNS_11char_traitsIcEENS_9allocatorIcEEEERNS_13basic_ostreamIT_T0_EES9_RKNS_12basic_stringIS6_S7_T1_EE, symObjAddr: 0x7D34, symBinAddr: 0x100008A84, symSize: 0x4C }
  - { offsetInCU: 0x10445, offset: 0x10445, size: 0x8, addend: 0x0, symName: __ZNSt3__1rsB8ue170006IcNS_11char_traitsIcEENS_9allocatorIcEEEERNS_13basic_istreamIT_T0_EES9_RNS_12basic_stringIS6_S7_T1_EE, symObjAddr: 0x8BEC, symBinAddr: 0x10000993C, symSize: 0x314 }
  - { offsetInCU: 0x10512, offset: 0x10512, size: 0x8, addend: 0x0, symName: __ZNSt3__1neB8ue170006IPP10menuVectorEEbRKNS_11__wrap_iterIT_EES8_, symObjAddr: 0x9164, symBinAddr: 0x100009EB4, symSize: 0x34 }
  - { offsetInCU: 0x10555, offset: 0x10555, size: 0x8, addend: 0x0, symName: __ZNSt3__1neB8ue170006IPP4menuEEbRKNS_11__wrap_iterIT_EES8_, symObjAddr: 0x9254, symBinAddr: 0x100009FA4, symSize: 0x34 }
  - { offsetInCU: 0x107CD, offset: 0x107CD, size: 0x8, addend: 0x0, symName: __ZNSt3__112__to_addressB8ue170006IP10menuVectorEEPT_S4_, symObjAddr: 0xA7D0, symBinAddr: 0x10000B520, symSize: 0x14 }
  - { offsetInCU: 0x10802, offset: 0x10802, size: 0x8, addend: 0x0, symName: __ZNSt3__119__allocate_at_leastB8ue170006INS_9allocatorIP10menuVectorEEEENS_19__allocation_resultINS_16allocator_traitsIT_E7pointerEEERS7_m, symObjAddr: 0xAE08, symBinAddr: 0x10000BB58, symSize: 0x40 }
  - { offsetInCU: 0x10845, offset: 0x10845, size: 0x8, addend: 0x0, symName: __ZNSt3__142__uninitialized_allocator_move_if_noexceptB8ue170006INS_9allocatorIP10menuVectorEENS_16reverse_iteratorIPS3_EES7_S3_vEET1_RT_T0_SB_S8_, symObjAddr: 0xB0A0, symBinAddr: 0x10000BDF0, symSize: 0xE8 }
  - { offsetInCU: 0x108C2, offset: 0x108C2, size: 0x8, addend: 0x0, symName: __ZNSt3__14swapB8ue170006IPP10menuVectorEEvRT_S5_, symObjAddr: 0xB1D4, symBinAddr: 0x10000BF24, symSize: 0x3C }
  - { offsetInCU: 0x10913, offset: 0x10913, size: 0x8, addend: 0x0, symName: __ZNSt3__1neB8ue170006IPP10menuVectorS3_EEbRKNS_16reverse_iteratorIT_EERKNS4_IT0_EE, symObjAddr: 0xB304, symBinAddr: 0x10000C054, symSize: 0x48 }
  - { offsetInCU: 0x10984, offset: 0x10984, size: 0x8, addend: 0x0, symName: __ZNSt3__114__construct_atB8ue170006IP10menuVectorJS2_EPS2_EEPT_S5_DpOT0_, symObjAddr: 0xB34C, symBinAddr: 0x10000C09C, symSize: 0x2C }
  - { offsetInCU: 0x109F4, offset: 0x109F4, size: 0x8, addend: 0x0, symName: __ZNSt3__112__to_addressB8ue170006INS_16reverse_iteratorIPP10menuVectorEEvEEu7__decayIDTclsr19__to_address_helperIT_EE6__callclsr3stdE7declvalIRKS6_EEEEES8_, symObjAddr: 0xB378, symBinAddr: 0x10000C0C8, symSize: 0x24 }
  - { offsetInCU: 0x10A2A, offset: 0x10A2A, size: 0x8, addend: 0x0, symName: __ZNSt3__14moveB8ue170006INS_16reverse_iteratorIPP10menuVectorEES5_EET0_T_S7_S6_, symObjAddr: 0xB3E4, symBinAddr: 0x10000C134, symSize: 0x78 }
  - { offsetInCU: 0x10AAD, offset: 0x10AAD, size: 0x8, addend: 0x0, symName: __ZNSt3__16__moveB8ue170006INS_17_ClassicAlgPolicyENS_16reverse_iteratorIPP10menuVectorEES6_S6_EENS_4pairIT0_T2_EES8_T1_S9_, symObjAddr: 0xB4CC, symBinAddr: 0x10000C21C, symSize: 0x64 }
  - { offsetInCU: 0x10B19, offset: 0x10B19, size: 0x8, addend: 0x0, symName: __ZNSt3__123__dispatch_copy_or_moveB8ue170006INS_17_ClassicAlgPolicyENS_11__move_loopIS1_EENS_14__move_trivialENS_16reverse_iteratorIPP10menuVectorEES9_S9_EENS_4pairIT2_T4_EESB_T3_SC_, symObjAddr: 0xB530, symBinAddr: 0x10000C280, symSize: 0x64 }
  - { offsetInCU: 0x10B97, offset: 0x10B97, size: 0x8, addend: 0x0, symName: __ZNSt3__121__unwrap_and_dispatchB8ue170006INS_10__overloadINS_11__move_loopINS_17_ClassicAlgPolicyEEENS_14__move_trivialEEENS_16reverse_iteratorIPP10menuVectorEESB_SB_Li0EEENS_4pairIT0_T2_EESD_T1_SE_, symObjAddr: 0xB594, symBinAddr: 0x10000C2E4, symSize: 0x12C }
  - { offsetInCU: 0x10C27, offset: 0x10C27, size: 0x8, addend: 0x0, symName: __ZNSt3__114__unwrap_rangeB8ue170006INS_16reverse_iteratorIPP10menuVectorEES5_EENS_4pairIT0_S7_EET_S9_, symObjAddr: 0xB6C0, symBinAddr: 0x10000C410, symSize: 0x84 }
  - { offsetInCU: 0x10D20, offset: 0x10D20, size: 0x8, addend: 0x0, symName: __ZNSt3__113__unwrap_iterB8ue170006INS_16reverse_iteratorIPP10menuVectorEENS_18__unwrap_iter_implIS5_Lb0EEELi0EEEDTclsrT0_8__unwrapclsr3stdE7declvalIT_EEEES9_, symObjAddr: 0xB7E4, symBinAddr: 0x10000C534, symSize: 0x44 }
  - { offsetInCU: 0x10D64, offset: 0x10D64, size: 0x8, addend: 0x0, symName: __ZNSt3__19make_pairB8ue170006INS_16reverse_iteratorIPP10menuVectorEES5_EENS_4pairINS_18__unwrap_ref_decayIT_E4typeENS7_IT0_E4typeEEEOS8_OSB_, symObjAddr: 0xB828, symBinAddr: 0x10000C578, symSize: 0x38 }
  - { offsetInCU: 0x10DB3, offset: 0x10DB3, size: 0x8, addend: 0x0, symName: __ZNSt3__114__rewrap_rangeB8ue170006INS_16reverse_iteratorIPP10menuVectorEES5_EET_S6_T0_, symObjAddr: 0xB860, symBinAddr: 0x10000C5B0, symSize: 0x5C }
  - { offsetInCU: 0x10DFF, offset: 0x10DFF, size: 0x8, addend: 0x0, symName: __ZNSt3__113__rewrap_iterB8ue170006INS_16reverse_iteratorIPP10menuVectorEES5_NS_18__unwrap_iter_implIS5_Lb0EEEEET_S8_T0_, symObjAddr: 0xB8BC, symBinAddr: 0x10000C60C, symSize: 0x88 }
  - { offsetInCU: 0x10EC0, offset: 0x10EC0, size: 0x8, addend: 0x0, symName: __ZNSt3__1eqB8ue170006IPP10menuVectorEEbRKNS_11__wrap_iterIT_EES8_, symObjAddr: 0xC220, symBinAddr: 0x10000CF70, symSize: 0x48 }
  - { offsetInCU: 0x10F03, offset: 0x10F03, size: 0x8, addend: 0x0, symName: __ZNSt3__1eqB8ue170006IPP4menuEEbRKNS_11__wrap_iterIT_EES8_, symObjAddr: 0xC304, symBinAddr: 0x10000D054, symSize: 0x48 }
  - { offsetInCU: 0x10F46, offset: 0x10F46, size: 0x8, addend: 0x0, symName: __ZNSt3__112__to_addressB8ue170006IP4menuEEPT_S4_, symObjAddr: 0xC6CC, symBinAddr: 0x10000D41C, symSize: 0x14 }
  - { offsetInCU: 0x10F7B, offset: 0x10F7B, size: 0x8, addend: 0x0, symName: __ZNSt3__1eqB8ue170006IcNS_11char_traitsIcEENS_9allocatorIcEEEEbRKNS_12basic_stringIT_T0_T1_EEPKS6_, symObjAddr: 0xCA38, symBinAddr: 0x10000D788, symSize: 0xC0 }
  - { offsetInCU: 0x10FE2, offset: 0x10FE2, size: 0x8, addend: 0x0, symName: __ZNSt3__1plB8ue170006IcNS_11char_traitsIcEENS_9allocatorIcEEEENS_12basic_stringIT_T0_T1_EERKS9_PKS6_, symObjAddr: 0xCBDC, symBinAddr: 0x10000D92C, symSize: 0x11C }
  - { offsetInCU: 0x11083, offset: 0x11083, size: 0x8, addend: 0x0, symName: __ZNSt3__1plB8ue170006IcNS_11char_traitsIcEENS_9allocatorIcEEEENS_12basic_stringIT_T0_T1_EERKS9_SB_, symObjAddr: 0xCDBC, symBinAddr: 0x10000DB0C, symSize: 0x134 }
  - { offsetInCU: 0x11124, offset: 0x11124, size: 0x8, addend: 0x0, symName: __ZNSt3__17getlineB8ue170006IcNS_11char_traitsIcEENS_9allocatorIcEEEERNS_13basic_istreamIT_T0_EES9_RNS_12basic_stringIS6_S7_T1_EE, symObjAddr: 0xCF84, symBinAddr: 0x10000DCD4, symSize: 0x5C }
  - { offsetInCU: 0x1117C, offset: 0x1117C, size: 0x8, addend: 0x0, symName: __ZNSt3__17getlineB8ue170006IcNS_11char_traitsIcEENS_9allocatorIcEEEERNS_13basic_istreamIT_T0_EES9_RNS_12basic_stringIS6_S7_T1_EES6_, symObjAddr: 0xD0A0, symBinAddr: 0x10000DDF0, symSize: 0x234 }
  - { offsetInCU: 0x1123A, offset: 0x1123A, size: 0x8, addend: 0x0, symName: __ZNSt3__110__str_findB8ue170006IcmNS_11char_traitsIcEELm18446744073709551615EEET0_PKT_S3_S6_S3_S3_, symObjAddr: 0xD370, symBinAddr: 0x10000E0C0, symSize: 0xE4 }
  - { offsetInCU: 0x112E1, offset: 0x112E1, size: 0x8, addend: 0x0, symName: __ZNSt3__118__search_substringB8ue170006IcNS_11char_traitsIcEEEEPKT_S5_S5_S5_S5_, symObjAddr: 0xD454, symBinAddr: 0x10000E1A4, symSize: 0x154 }
  - { offsetInCU: 0x1137B, offset: 0x1137B, size: 0x8, addend: 0x0, symName: __ZNSt3__118__constexpr_memchrB8ue170006IKccEEPT_S3_T0_m, symObjAddr: 0xD62C, symBinAddr: 0x10000E37C, symSize: 0xC0 }
  - { offsetInCU: 0x113F1, offset: 0x113F1, size: 0x8, addend: 0x0, symName: __ZNSt3__112__to_addressB8ue170006IcEEPT_S2_, symObjAddr: 0xD75C, symBinAddr: 0x10000E4AC, symSize: 0x14 }
  - { offsetInCU: 0x11426, offset: 0x11426, size: 0x8, addend: 0x0, symName: __ZNSt3__14copyB8ue170006IPKcPcEET0_T_S5_S4_, symObjAddr: 0xDAD0, symBinAddr: 0x10000E820, symSize: 0x40 }
  - { offsetInCU: 0x11480, offset: 0x11480, size: 0x8, addend: 0x0, symName: __ZNSt3__16__copyB8ue170006INS_17_ClassicAlgPolicyEPKcS3_PcEENS_4pairIT0_T2_EES6_T1_S7_, symObjAddr: 0xDB10, symBinAddr: 0x10000E860, symSize: 0x44 }
  - { offsetInCU: 0x114EC, offset: 0x114EC, size: 0x8, addend: 0x0, symName: __ZNSt3__123__dispatch_copy_or_moveB8ue170006INS_17_ClassicAlgPolicyENS_11__copy_loopIS1_EENS_14__copy_trivialEPKcS6_PcEENS_4pairIT2_T4_EES9_T3_SA_, symObjAddr: 0xDB54, symBinAddr: 0x10000E8A4, symSize: 0x44 }
  - { offsetInCU: 0x1156A, offset: 0x1156A, size: 0x8, addend: 0x0, symName: __ZNSt3__121__unwrap_and_dispatchB8ue170006INS_10__overloadINS_11__copy_loopINS_17_ClassicAlgPolicyEEENS_14__copy_trivialEEEPKcS8_PcLi0EEENS_4pairIT0_T2_EESB_T1_SC_, symObjAddr: 0xDB98, symBinAddr: 0x10000E8E8, symSize: 0xB4 }
  - { offsetInCU: 0x115F8, offset: 0x115F8, size: 0x8, addend: 0x0, symName: __ZNSt3__114__unwrap_rangeB8ue170006IPKcS2_EENS_4pairIT0_S4_EET_S6_, symObjAddr: 0xDC4C, symBinAddr: 0x10000E99C, symSize: 0x60 }
  - { offsetInCU: 0x11737, offset: 0x11737, size: 0x8, addend: 0x0, symName: __ZNSt3__113__unwrap_iterB8ue170006IPcNS_18__unwrap_iter_implIS1_Lb1EEELi0EEEDTclsrT0_8__unwrapclsr3stdE7declvalIT_EEEES5_, symObjAddr: 0xDCF4, symBinAddr: 0x10000EA44, symSize: 0x24 }
  - { offsetInCU: 0x1177B, offset: 0x1177B, size: 0x8, addend: 0x0, symName: __ZNSt3__19make_pairB8ue170006IPKcPcEENS_4pairINS_18__unwrap_ref_decayIT_E4typeENS5_IT0_E4typeEEEOS6_OS9_, symObjAddr: 0xDD18, symBinAddr: 0x10000EA68, symSize: 0x38 }
  - { offsetInCU: 0x117CA, offset: 0x117CA, size: 0x8, addend: 0x0, symName: __ZNSt3__114__rewrap_rangeB8ue170006IPKcS2_EET_S3_T0_, symObjAddr: 0xDD50, symBinAddr: 0x10000EAA0, symSize: 0x2C }
  - { offsetInCU: 0x11816, offset: 0x11816, size: 0x8, addend: 0x0, symName: __ZNSt3__113__rewrap_iterB8ue170006IPcS1_NS_18__unwrap_iter_implIS1_Lb1EEEEET_S4_T0_, symObjAddr: 0xDD7C, symBinAddr: 0x10000EACC, symSize: 0x50 }
  - { offsetInCU: 0x1186B, offset: 0x1186B, size: 0x8, addend: 0x0, symName: __ZNSt3__19make_pairB8ue170006IPKcS2_EENS_4pairINS_18__unwrap_ref_decayIT_E4typeENS4_IT0_E4typeEEEOS5_OS8_, symObjAddr: 0xDDCC, symBinAddr: 0x10000EB1C, symSize: 0x38 }
  - { offsetInCU: 0x118BA, offset: 0x118BA, size: 0x8, addend: 0x0, symName: __ZNSt3__113__unwrap_iterB8ue170006IPKcNS_18__unwrap_iter_implIS2_Lb1EEELi0EEEDTclsrT0_8__unwrapclsr3stdE7declvalIT_EEEES6_, symObjAddr: 0xDE04, symBinAddr: 0x10000EB54, symSize: 0x24 }
  - { offsetInCU: 0x119FE, offset: 0x119FE, size: 0x8, addend: 0x0, symName: __ZNSt3__119__copy_trivial_implB8ue170006IKccEENS_4pairIPT_PT0_EES4_S4_S6_, symObjAddr: 0xDEBC, symBinAddr: 0x10000EC0C, symSize: 0x78 }
  - { offsetInCU: 0x11A66, offset: 0x11A66, size: 0x8, addend: 0x0, symName: __ZNSt3__119__constexpr_memmoveB8ue170006IcKcLi0EEEPT_S3_PT0_NS_15__element_countE, symObjAddr: 0xDF34, symBinAddr: 0x10000EC84, symSize: 0xA0 }
  - { offsetInCU: 0x11AD4, offset: 0x11AD4, size: 0x8, addend: 0x0, symName: __ZNSt3__19make_pairB8ue170006IRPKcPcEENS_4pairINS_18__unwrap_ref_decayIT_E4typeENS6_IT0_E4typeEEEOS7_OSA_, symObjAddr: 0xDFD4, symBinAddr: 0x10000ED24, symSize: 0x38 }
  - { offsetInCU: 0x11B76, offset: 0x11B76, size: 0x8, addend: 0x0, symName: __ZNSt3__113__rewrap_iterB8ue170006IPKcS2_NS_18__unwrap_iter_implIS2_Lb1EEEEET_S5_T0_, symObjAddr: 0xE0A0, symBinAddr: 0x10000EDF0, symSize: 0x50 }
  - { offsetInCU: 0x11BCB, offset: 0x11BCB, size: 0x8, addend: 0x0, symName: __ZNSt3__16fill_nB8ue170006IPcmcEET_S2_T0_RKT1_, symObjAddr: 0xE180, symBinAddr: 0x10000EED0, symSize: 0x44 }
  - { offsetInCU: 0x11C2E, offset: 0x11C2E, size: 0x8, addend: 0x0, symName: __ZNSt3__18__fill_nB8ue170006IPcmcEET_S2_T0_RKT1_, symObjAddr: 0xE1C4, symBinAddr: 0x10000EF14, symSize: 0x64 }
  - { offsetInCU: 0x11C91, offset: 0x11C91, size: 0x8, addend: 0x0, symName: __ZNSt3__121__convert_to_integralB8ue170006Em, symObjAddr: 0xE228, symBinAddr: 0x10000EF78, symSize: 0x14 }
  - { offsetInCU: 0x11CBD, offset: 0x11CBD, size: 0x8, addend: 0x0, symName: __ZNSt3__112__to_addressB8ue170006IP7AccountEEPT_S4_, symObjAddr: 0xEDD0, symBinAddr: 0x10000FB20, symSize: 0x14 }
  - { offsetInCU: 0x11CF2, offset: 0x11CF2, size: 0x8, addend: 0x0, symName: __ZNSt3__119__allocate_at_leastB8ue170006INS_9allocatorIP7AccountEEEENS_19__allocation_resultINS_16allocator_traitsIT_E7pointerEEERS7_m, symObjAddr: 0xF408, symBinAddr: 0x100010158, symSize: 0x40 }
  - { offsetInCU: 0x11D35, offset: 0x11D35, size: 0x8, addend: 0x0, symName: __ZNSt3__142__uninitialized_allocator_move_if_noexceptB8ue170006INS_9allocatorIP7AccountEENS_16reverse_iteratorIPS3_EES7_S3_vEET1_RT_T0_SB_S8_, symObjAddr: 0xF6A0, symBinAddr: 0x1000103F0, symSize: 0xE8 }
  - { offsetInCU: 0x11DB2, offset: 0x11DB2, size: 0x8, addend: 0x0, symName: __ZNSt3__14swapB8ue170006IPP7AccountEEvRT_S5_, symObjAddr: 0xF7D4, symBinAddr: 0x100010524, symSize: 0x3C }
  - { offsetInCU: 0x11E03, offset: 0x11E03, size: 0x8, addend: 0x0, symName: __ZNSt3__1neB8ue170006IPP7AccountS3_EEbRKNS_16reverse_iteratorIT_EERKNS4_IT0_EE, symObjAddr: 0xF904, symBinAddr: 0x100010654, symSize: 0x48 }
  - { offsetInCU: 0x11E74, offset: 0x11E74, size: 0x8, addend: 0x0, symName: __ZNSt3__114__construct_atB8ue170006IP7AccountJS2_EPS2_EEPT_S5_DpOT0_, symObjAddr: 0xF94C, symBinAddr: 0x10001069C, symSize: 0x2C }
  - { offsetInCU: 0x11EE4, offset: 0x11EE4, size: 0x8, addend: 0x0, symName: __ZNSt3__112__to_addressB8ue170006INS_16reverse_iteratorIPP7AccountEEvEEu7__decayIDTclsr19__to_address_helperIT_EE6__callclsr3stdE7declvalIRKS6_EEEEES8_, symObjAddr: 0xF978, symBinAddr: 0x1000106C8, symSize: 0x24 }
  - { offsetInCU: 0x11F1A, offset: 0x11F1A, size: 0x8, addend: 0x0, symName: __ZNSt3__14moveB8ue170006INS_16reverse_iteratorIPP7AccountEES5_EET0_T_S7_S6_, symObjAddr: 0xF9E4, symBinAddr: 0x100010734, symSize: 0x78 }
  - { offsetInCU: 0x11F9D, offset: 0x11F9D, size: 0x8, addend: 0x0, symName: __ZNSt3__16__moveB8ue170006INS_17_ClassicAlgPolicyENS_16reverse_iteratorIPP7AccountEES6_S6_EENS_4pairIT0_T2_EES8_T1_S9_, symObjAddr: 0xFACC, symBinAddr: 0x10001081C, symSize: 0x64 }
  - { offsetInCU: 0x12009, offset: 0x12009, size: 0x8, addend: 0x0, symName: __ZNSt3__123__dispatch_copy_or_moveB8ue170006INS_17_ClassicAlgPolicyENS_11__move_loopIS1_EENS_14__move_trivialENS_16reverse_iteratorIPP7AccountEES9_S9_EENS_4pairIT2_T4_EESB_T3_SC_, symObjAddr: 0xFB30, symBinAddr: 0x100010880, symSize: 0x64 }
  - { offsetInCU: 0x12087, offset: 0x12087, size: 0x8, addend: 0x0, symName: __ZNSt3__121__unwrap_and_dispatchB8ue170006INS_10__overloadINS_11__move_loopINS_17_ClassicAlgPolicyEEENS_14__move_trivialEEENS_16reverse_iteratorIPP7AccountEESB_SB_Li0EEENS_4pairIT0_T2_EESD_T1_SE_, symObjAddr: 0xFB94, symBinAddr: 0x1000108E4, symSize: 0x12C }
  - { offsetInCU: 0x12117, offset: 0x12117, size: 0x8, addend: 0x0, symName: __ZNSt3__114__unwrap_rangeB8ue170006INS_16reverse_iteratorIPP7AccountEES5_EENS_4pairIT0_S7_EET_S9_, symObjAddr: 0xFCC0, symBinAddr: 0x100010A10, symSize: 0x84 }
  - { offsetInCU: 0x12210, offset: 0x12210, size: 0x8, addend: 0x0, symName: __ZNSt3__113__unwrap_iterB8ue170006INS_16reverse_iteratorIPP7AccountEENS_18__unwrap_iter_implIS5_Lb0EEELi0EEEDTclsrT0_8__unwrapclsr3stdE7declvalIT_EEEES9_, symObjAddr: 0xFDE4, symBinAddr: 0x100010B34, symSize: 0x44 }
  - { offsetInCU: 0x12254, offset: 0x12254, size: 0x8, addend: 0x0, symName: __ZNSt3__19make_pairB8ue170006INS_16reverse_iteratorIPP7AccountEES5_EENS_4pairINS_18__unwrap_ref_decayIT_E4typeENS7_IT0_E4typeEEEOS8_OSB_, symObjAddr: 0xFE28, symBinAddr: 0x100010B78, symSize: 0x38 }
  - { offsetInCU: 0x122A3, offset: 0x122A3, size: 0x8, addend: 0x0, symName: __ZNSt3__114__rewrap_rangeB8ue170006INS_16reverse_iteratorIPP7AccountEES5_EET_S6_T0_, symObjAddr: 0xFE60, symBinAddr: 0x100010BB0, symSize: 0x5C }
  - { offsetInCU: 0x122EF, offset: 0x122EF, size: 0x8, addend: 0x0, symName: __ZNSt3__113__rewrap_iterB8ue170006INS_16reverse_iteratorIPP7AccountEES5_NS_18__unwrap_iter_implIS5_Lb0EEEEET_S8_T0_, symObjAddr: 0xFEBC, symBinAddr: 0x100010C0C, symSize: 0x88 }
  - { offsetInCU: 0x123B0, offset: 0x123B0, size: 0x8, addend: 0x0, symName: __ZNSt3__1lsB8ue170006IcNS_11char_traitsIcEEEERNS_13basic_ostreamIT_T0_EES7_RKNS_8__iom_t6E, symObjAddr: 0x11624, symBinAddr: 0x100012374, symSize: 0x40 }
  - { offsetInCU: 0x123FF, offset: 0x123FF, size: 0x8, addend: 0x0, symName: __ZNSt3__14leftB8ue170006ERNS_8ios_baseE, symObjAddr: 0x116A4, symBinAddr: 0x1000123F4, symSize: 0x30 }
  - { offsetInCU: 0x1242D, offset: 0x1242D, size: 0x8, addend: 0x0, symName: __ZNSt3__15rightB8ue170006ERNS_8ios_baseE, symObjAddr: 0x1170C, symBinAddr: 0x10001245C, symSize: 0x30 }
  - { offsetInCU: 0x1245B, offset: 0x1245B, size: 0x8, addend: 0x0, symName: __ZNSt3__14setwB8ue170006Ei, symObjAddr: 0x1173C, symBinAddr: 0x10001248C, symSize: 0x2C }
  - { offsetInCU: 0x12489, offset: 0x12489, size: 0x8, addend: 0x0, symName: __ZNSt3__1neB8ue170006IPKP4menuEEbRKNS_11__wrap_iterIT_EES9_, symObjAddr: 0x129BC, symBinAddr: 0x10001370C, symSize: 0x34 }
  - { offsetInCU: 0x124CC, offset: 0x124CC, size: 0x8, addend: 0x0, symName: __ZNSt3__1eqB8ue170006IPKP4menuEEbRKNS_11__wrap_iterIT_EES9_, symObjAddr: 0x12AAC, symBinAddr: 0x1000137FC, symSize: 0x48 }
  - { offsetInCU: 0x1250F, offset: 0x1250F, size: 0x8, addend: 0x0, symName: __ZNSt3__122__make_exception_guardB8ue170006INS_6vectorIP4menuNS_9allocatorIS3_EEE16__destroy_vectorEEENS_28__exception_guard_exceptionsIT_EES9_, symObjAddr: 0x12DC0, symBinAddr: 0x100013B10, symSize: 0x40 }
  - { offsetInCU: 0x12544, offset: 0x12544, size: 0x8, addend: 0x0, symName: __ZNSt3__119__allocate_at_leastB8ue170006INS_9allocatorIP4menuEEEENS_19__allocation_resultINS_16allocator_traitsIT_E7pointerEEERS7_m, symObjAddr: 0x13070, symBinAddr: 0x100013DC0, symSize: 0x40 }
  - { offsetInCU: 0x12587, offset: 0x12587, size: 0x8, addend: 0x0, symName: __ZNSt3__130__uninitialized_allocator_copyB8ue170006INS_9allocatorIP4menuEEPS3_S5_S5_EET2_RT_T0_T1_S6_, symObjAddr: 0x132B4, symBinAddr: 0x100014004, symSize: 0x80 }
  - { offsetInCU: 0x12624, offset: 0x12624, size: 0x8, addend: 0x0, symName: __ZNSt3__114__unwrap_rangeB8ue170006IPP4menuS3_EENS_4pairIT0_S5_EET_S7_, symObjAddr: 0x133A4, symBinAddr: 0x1000140F4, symSize: 0x60 }
  - { offsetInCU: 0x12670, offset: 0x12670, size: 0x8, addend: 0x0, symName: __ZNSt3__135__uninitialized_allocator_copy_implB8ue170006INS_9allocatorIP4menuEEPS3_S5_S5_EET2_RT_T0_T1_S6_, symObjAddr: 0x13404, symBinAddr: 0x100014154, symSize: 0xFC }
  - { offsetInCU: 0x1270E, offset: 0x1270E, size: 0x8, addend: 0x0, symName: __ZNSt3__113__unwrap_iterB8ue170006IPP4menuNS_18__unwrap_iter_implIS3_Lb1EEELi0EEEDTclsrT0_8__unwrapclsr3stdE7declvalIT_EEEES7_, symObjAddr: 0x13500, symBinAddr: 0x100014250, symSize: 0x24 }
  - { offsetInCU: 0x12752, offset: 0x12752, size: 0x8, addend: 0x0, symName: __ZNSt3__113__rewrap_iterB8ue170006IPP4menuS3_NS_18__unwrap_iter_implIS3_Lb1EEEEET_S6_T0_, symObjAddr: 0x13524, symBinAddr: 0x100014274, symSize: 0x50 }
  - { offsetInCU: 0x127A7, offset: 0x127A7, size: 0x8, addend: 0x0, symName: __ZNSt3__19make_pairB8ue170006IPP4menuS3_EENS_4pairINS_18__unwrap_ref_decayIT_E4typeENS5_IT0_E4typeEEEOS6_OS9_, symObjAddr: 0x13574, symBinAddr: 0x1000142C4, symSize: 0x38 }
  - { offsetInCU: 0x128A3, offset: 0x128A3, size: 0x8, addend: 0x0, symName: __ZNSt3__122__make_exception_guardB8ue170006INS_29_AllocatorDestroyRangeReverseINS_9allocatorIP4menuEEPS4_EEEENS_28__exception_guard_exceptionsIT_EES9_, symObjAddr: 0x1361C, symBinAddr: 0x10001436C, symSize: 0x4C }
  - { offsetInCU: 0x128D9, offset: 0x128D9, size: 0x8, addend: 0x0, symName: __ZNSt3__119__allocator_destroyB8ue170006INS_9allocatorIP4menuEENS_16reverse_iteratorIPS3_EES7_EEvRT_T0_T1_, symObjAddr: 0x1389C, symBinAddr: 0x1000145EC, symSize: 0x70 }
  - { offsetInCU: 0x1293C, offset: 0x1293C, size: 0x8, addend: 0x0, symName: __ZNSt3__1neB8ue170006IPP4menuS3_EEbRKNS_16reverse_iteratorIT_EERKNS4_IT0_EE, symObjAddr: 0x13940, symBinAddr: 0x100014690, symSize: 0x48 }
  - { offsetInCU: 0x12988, offset: 0x12988, size: 0x8, addend: 0x0, symName: __ZNSt3__112__to_addressB8ue170006INS_16reverse_iteratorIPP4menuEEvEEu7__decayIDTclsr19__to_address_helperIT_EE6__callclsr3stdE7declvalIRKS6_EEEEES8_, symObjAddr: 0x13988, symBinAddr: 0x1000146D8, symSize: 0x24 }
  - { offsetInCU: 0x12A3A, offset: 0x12A3A, size: 0x8, addend: 0x0, symName: __ZNSt3__142__uninitialized_allocator_move_if_noexceptB8ue170006INS_9allocatorIP4menuEENS_16reverse_iteratorIPS3_EES7_S3_vEET1_RT_T0_SB_S8_, symObjAddr: 0x14220, symBinAddr: 0x100014F70, symSize: 0xE8 }
  - { offsetInCU: 0x12AB7, offset: 0x12AB7, size: 0x8, addend: 0x0, symName: __ZNSt3__14swapB8ue170006IPP4menuEEvRT_S5_, symObjAddr: 0x14308, symBinAddr: 0x100015058, symSize: 0x3C }
  - { offsetInCU: 0x12B2D, offset: 0x12B2D, size: 0x8, addend: 0x0, symName: __ZNSt3__114__construct_atB8ue170006IP4menuJS2_EPS2_EEPT_S5_DpOT0_, symObjAddr: 0x14344, symBinAddr: 0x100015094, symSize: 0x2C }
  - { offsetInCU: 0x12B9D, offset: 0x12B9D, size: 0x8, addend: 0x0, symName: __ZNSt3__14moveB8ue170006INS_16reverse_iteratorIPP4menuEES5_EET0_T_S7_S6_, symObjAddr: 0x14370, symBinAddr: 0x1000150C0, symSize: 0x78 }
  - { offsetInCU: 0x12BF7, offset: 0x12BF7, size: 0x8, addend: 0x0, symName: __ZNSt3__16__moveB8ue170006INS_17_ClassicAlgPolicyENS_16reverse_iteratorIPP4menuEES6_S6_EENS_4pairIT0_T2_EES8_T1_S9_, symObjAddr: 0x143E8, symBinAddr: 0x100015138, symSize: 0x64 }
  - { offsetInCU: 0x12C63, offset: 0x12C63, size: 0x8, addend: 0x0, symName: __ZNSt3__123__dispatch_copy_or_moveB8ue170006INS_17_ClassicAlgPolicyENS_11__move_loopIS1_EENS_14__move_trivialENS_16reverse_iteratorIPP4menuEES9_S9_EENS_4pairIT2_T4_EESB_T3_SC_, symObjAddr: 0x1444C, symBinAddr: 0x10001519C, symSize: 0x64 }
  - { offsetInCU: 0x12CE1, offset: 0x12CE1, size: 0x8, addend: 0x0, symName: __ZNSt3__121__unwrap_and_dispatchB8ue170006INS_10__overloadINS_11__move_loopINS_17_ClassicAlgPolicyEEENS_14__move_trivialEEENS_16reverse_iteratorIPP4menuEESB_SB_Li0EEENS_4pairIT0_T2_EESD_T1_SE_, symObjAddr: 0x144B0, symBinAddr: 0x100015200, symSize: 0x12C }
  - { offsetInCU: 0x12D71, offset: 0x12D71, size: 0x8, addend: 0x0, symName: __ZNSt3__114__unwrap_rangeB8ue170006INS_16reverse_iteratorIPP4menuEES5_EENS_4pairIT0_S7_EET_S9_, symObjAddr: 0x145DC, symBinAddr: 0x10001532C, symSize: 0x84 }
  - { offsetInCU: 0x12E6A, offset: 0x12E6A, size: 0x8, addend: 0x0, symName: __ZNSt3__113__unwrap_iterB8ue170006INS_16reverse_iteratorIPP4menuEENS_18__unwrap_iter_implIS5_Lb0EEELi0EEEDTclsrT0_8__unwrapclsr3stdE7declvalIT_EEEES9_, symObjAddr: 0x14700, symBinAddr: 0x100015450, symSize: 0x44 }
  - { offsetInCU: 0x12EAE, offset: 0x12EAE, size: 0x8, addend: 0x0, symName: __ZNSt3__19make_pairB8ue170006INS_16reverse_iteratorIPP4menuEES5_EENS_4pairINS_18__unwrap_ref_decayIT_E4typeENS7_IT0_E4typeEEEOS8_OSB_, symObjAddr: 0x14744, symBinAddr: 0x100015494, symSize: 0x38 }
  - { offsetInCU: 0x12EFD, offset: 0x12EFD, size: 0x8, addend: 0x0, symName: __ZNSt3__114__rewrap_rangeB8ue170006INS_16reverse_iteratorIPP4menuEES5_EET_S6_T0_, symObjAddr: 0x1477C, symBinAddr: 0x1000154CC, symSize: 0x5C }
  - { offsetInCU: 0x12F49, offset: 0x12F49, size: 0x8, addend: 0x0, symName: __ZNSt3__113__rewrap_iterB8ue170006INS_16reverse_iteratorIPP4menuEES5_NS_18__unwrap_iter_implIS5_Lb0EEEEET_S8_T0_, symObjAddr: 0x147D8, symBinAddr: 0x100015528, symSize: 0x88 }
  - { offsetInCU: 0x1300A, offset: 0x1300A, size: 0x8, addend: 0x0, symName: __ZNSt3__17reverseB8ue170006INS_11__wrap_iterIPcEEEEvT_S4_, symObjAddr: 0x14C78, symBinAddr: 0x1000159C8, symSize: 0x3C }
  - { offsetInCU: 0x13049, offset: 0x13049, size: 0x8, addend: 0x0, symName: __ZNSt3__19__reverseB8ue170006INS_17_ClassicAlgPolicyENS_11__wrap_iterIPcEES4_EEvT0_T1_, symObjAddr: 0x14E88, symBinAddr: 0x100015BD8, symSize: 0x3C }
  - { offsetInCU: 0x1309A, offset: 0x1309A, size: 0x8, addend: 0x0, symName: __ZNSt3__114__reverse_implB8ue170006INS_17_ClassicAlgPolicyENS_11__wrap_iterIPcEEEEvT0_S5_NS_26random_access_iterator_tagE, symObjAddr: 0x14EC4, symBinAddr: 0x100015C14, symSize: 0x7C }
  - { offsetInCU: 0x130EC, offset: 0x130EC, size: 0x8, addend: 0x0, symName: __ZNSt3__1neB8ue170006IPcEEbRKNS_11__wrap_iterIT_EES6_, symObjAddr: 0x14F40, symBinAddr: 0x100015C90, symSize: 0x34 }
  - { offsetInCU: 0x1312F, offset: 0x1312F, size: 0x8, addend: 0x0, symName: __ZNSt3__1ltB8ue170006IPcEEbRKNS_11__wrap_iterIT_EES6_, symObjAddr: 0x14F74, symBinAddr: 0x100015CC4, symSize: 0x48 }
  - { offsetInCU: 0x13172, offset: 0x13172, size: 0x8, addend: 0x0, symName: __ZNSt3__1eqB8ue170006IPcEEbRKNS_11__wrap_iterIT_EES6_, symObjAddr: 0x15040, symBinAddr: 0x100015D90, symSize: 0x48 }
  - { offsetInCU: 0x131B5, offset: 0x131B5, size: 0x8, addend: 0x0, symName: __ZNSt3__19iter_swapB8ue170006INS_11__wrap_iterIPcEES3_EEvT_T0_, symObjAddr: 0x150A0, symBinAddr: 0x100015DF0, symSize: 0x50 }
  - { offsetInCU: 0x131FD, offset: 0x131FD, size: 0x8, addend: 0x0, symName: __ZNSt3__14swapB8ue170006IcEEvRT_S2_, symObjAddr: 0x150F0, symBinAddr: 0x100015E40, symSize: 0x3C }
  - { offsetInCU: 0x1326A, offset: 0x1326A, size: 0x8, addend: 0x0, symName: __ZNSt3__1miB8ue170006IPKP10menuVectorPS2_EENS_11__wrap_iterIT_E15difference_typeERKS8_RKNS6_IT0_EE, symObjAddr: 0x15A34, symBinAddr: 0x100016784, symSize: 0x48 }
  - { offsetInCU: 0x132E9, offset: 0x132E9, size: 0x8, addend: 0x0, symName: __ZNSt3__113move_backwardB8ue170006IPP10menuVectorS3_EET0_T_S5_S4_, symObjAddr: 0x15FC4, symBinAddr: 0x100016D14, symSize: 0x40 }
  - { offsetInCU: 0x13343, offset: 0x13343, size: 0x8, addend: 0x0, symName: __ZNSt3__115__move_backwardB8ue170006INS_17_ClassicAlgPolicyEPP10menuVectorS4_S4_EENS_4pairIT0_T2_EES6_T1_S7_, symObjAddr: 0x1602C, symBinAddr: 0x100016D7C, symSize: 0x44 }
  - { offsetInCU: 0x133AF, offset: 0x133AF, size: 0x8, addend: 0x0, symName: __ZNSt3__123__dispatch_copy_or_moveB8ue170006INS_17_ClassicAlgPolicyENS_20__move_backward_loopIS1_EENS_23__move_backward_trivialEPP10menuVectorS7_S7_EENS_4pairIT2_T4_EES9_T3_SA_, symObjAddr: 0x16070, symBinAddr: 0x100016DC0, symSize: 0x44 }
  - { offsetInCU: 0x1342D, offset: 0x1342D, size: 0x8, addend: 0x0, symName: __ZNSt3__121__unwrap_and_dispatchB8ue170006INS_10__overloadINS_20__move_backward_loopINS_17_ClassicAlgPolicyEEENS_23__move_backward_trivialEEEPP10menuVectorS9_S9_Li0EEENS_4pairIT0_T2_EESB_T1_SC_, symObjAddr: 0x160B4, symBinAddr: 0x100016E04, symSize: 0xB4 }
  - { offsetInCU: 0x134BB, offset: 0x134BB, size: 0x8, addend: 0x0, symName: __ZNSt3__114__unwrap_rangeB8ue170006IPP10menuVectorS3_EENS_4pairIT0_S5_EET_S7_, symObjAddr: 0x16168, symBinAddr: 0x100016EB8, symSize: 0x60 }
  - { offsetInCU: 0x135FA, offset: 0x135FA, size: 0x8, addend: 0x0, symName: __ZNSt3__113__unwrap_iterB8ue170006IPP10menuVectorNS_18__unwrap_iter_implIS3_Lb1EEELi0EEEDTclsrT0_8__unwrapclsr3stdE7declvalIT_EEEES7_, symObjAddr: 0x16210, symBinAddr: 0x100016F60, symSize: 0x24 }
  - { offsetInCU: 0x1363E, offset: 0x1363E, size: 0x8, addend: 0x0, symName: __ZNSt3__19make_pairB8ue170006IPP10menuVectorS3_EENS_4pairINS_18__unwrap_ref_decayIT_E4typeENS5_IT0_E4typeEEEOS6_OS9_, symObjAddr: 0x16234, symBinAddr: 0x100016F84, symSize: 0x38 }
  - { offsetInCU: 0x1368D, offset: 0x1368D, size: 0x8, addend: 0x0, symName: __ZNSt3__114__rewrap_rangeB8ue170006IPP10menuVectorS3_EET_S4_T0_, symObjAddr: 0x1626C, symBinAddr: 0x100016FBC, symSize: 0x2C }
  - { offsetInCU: 0x136D9, offset: 0x136D9, size: 0x8, addend: 0x0, symName: __ZNSt3__113__rewrap_iterB8ue170006IPP10menuVectorS3_NS_18__unwrap_iter_implIS3_Lb1EEEEET_S6_T0_, symObjAddr: 0x16298, symBinAddr: 0x100016FE8, symSize: 0x50 }
  - { offsetInCU: 0x1372E, offset: 0x1372E, size: 0x8, addend: 0x0, symName: __ZNSt3__128__copy_backward_trivial_implB8ue170006IP10menuVectorS2_EENS_4pairIPT_PT0_EES5_S5_S7_, symObjAddr: 0x162E8, symBinAddr: 0x100017038, symSize: 0x90 }
  - { offsetInCU: 0x13796, offset: 0x13796, size: 0x8, addend: 0x0, symName: __ZNSt3__119__constexpr_memmoveB8ue170006IP10menuVectorS2_Li0EEEPT_S4_PT0_NS_15__element_countE, symObjAddr: 0x16378, symBinAddr: 0x1000170C8, symSize: 0xA0 }
  - { offsetInCU: 0x13804, offset: 0x13804, size: 0x8, addend: 0x0, symName: __ZNSt3__19make_pairB8ue170006IRPP10menuVectorS4_EENS_4pairINS_18__unwrap_ref_decayIT_E4typeENS6_IT0_E4typeEEEOS7_OSA_, symObjAddr: 0x16418, symBinAddr: 0x100017168, symSize: 0x38 }
  - { offsetInCU: 0x138A6, offset: 0x138A6, size: 0x8, addend: 0x0, symName: __ZNSt3__14moveB8ue170006IPP10menuVectorS3_EET0_T_S5_S4_, symObjAddr: 0x16534, symBinAddr: 0x100017284, symSize: 0x40 }
  - { offsetInCU: 0x13900, offset: 0x13900, size: 0x8, addend: 0x0, symName: __ZNSt3__16__moveB8ue170006INS_17_ClassicAlgPolicyEPP10menuVectorS4_S4_EENS_4pairIT0_T2_EES6_T1_S7_, symObjAddr: 0x16608, symBinAddr: 0x100017358, symSize: 0x44 }
  - { offsetInCU: 0x1396C, offset: 0x1396C, size: 0x8, addend: 0x0, symName: __ZNSt3__123__dispatch_copy_or_moveB8ue170006INS_17_ClassicAlgPolicyENS_11__move_loopIS1_EENS_14__move_trivialEPP10menuVectorS7_S7_EENS_4pairIT2_T4_EES9_T3_SA_, symObjAddr: 0x1664C, symBinAddr: 0x10001739C, symSize: 0x44 }
  - { offsetInCU: 0x139EA, offset: 0x139EA, size: 0x8, addend: 0x0, symName: __ZNSt3__121__unwrap_and_dispatchB8ue170006INS_10__overloadINS_11__move_loopINS_17_ClassicAlgPolicyEEENS_14__move_trivialEEEPP10menuVectorS9_S9_Li0EEENS_4pairIT0_T2_EESB_T1_SC_, symObjAddr: 0x16690, symBinAddr: 0x1000173E0, symSize: 0xB4 }
  - { offsetInCU: 0x13ABE, offset: 0x13ABE, size: 0x8, addend: 0x0, symName: __ZNSt3__119__copy_trivial_implB8ue170006IP10menuVectorS2_EENS_4pairIPT_PT0_EES5_S5_S7_, symObjAddr: 0x1678C, symBinAddr: 0x1000174DC, symSize: 0x80 }
  - { offsetInCU: 0x13B26, offset: 0x13B26, size: 0x8, addend: 0x0, symName: __ZNSt3__19make_pairB8ue170006IRPP10menuVectorS3_EENS_4pairINS_18__unwrap_ref_decayIT_E4typeENS6_IT0_E4typeEEEOS7_OSA_, symObjAddr: 0x1680C, symBinAddr: 0x10001755C, symSize: 0x38 }
  - { offsetInCU: 0x13B75, offset: 0x13B75, size: 0x8, addend: 0x0, symName: __ZNSt3__18distanceB8ue170006INS_13move_iteratorIPP10menuVectorEEEENS_15iterator_traitsIT_E15difference_typeES7_S7_, symObjAddr: 0x16928, symBinAddr: 0x100017678, symSize: 0x3C }
  - { offsetInCU: 0x13BB8, offset: 0x13BB8, size: 0x8, addend: 0x0, symName: __ZNSt3__110__distanceB8ue170006INS_13move_iteratorIPP10menuVectorEEEENS_15iterator_traitsIT_E15difference_typeES7_S7_NS_26random_access_iterator_tagE, symObjAddr: 0x16A68, symBinAddr: 0x1000177B8, symSize: 0x30 }
  - { offsetInCU: 0x13C05, offset: 0x13C05, size: 0x8, addend: 0x0, symName: __ZNSt3__1miB8ue170006IPP10menuVectorS3_EENS_13move_iteratorIT_E15difference_typeERKS6_RKNS4_IT0_EE, symObjAddr: 0x16A98, symBinAddr: 0x1000177E8, symSize: 0x48 }
  - { offsetInCU: 0x13C54, offset: 0x13C54, size: 0x8, addend: 0x0, symName: __ZNSt3__142__uninitialized_allocator_move_if_noexceptB8ue170006INS_9allocatorIP10menuVectorEEPS3_S5_S3_vEET1_RT_T0_S9_S6_, symObjAddr: 0x16B18, symBinAddr: 0x100017868, symSize: 0xA4 }
  - { offsetInCU: 0x13CD0, offset: 0x13CD0, size: 0x8, addend: 0x0, symName: __ZNSt3__1neB8ue170006IPP7AccountEEbRKNS_11__wrap_iterIT_EES8_, symObjAddr: 0x17858, symBinAddr: 0x1000185A8, symSize: 0x34 }
  - { offsetInCU: 0x13D13, offset: 0x13D13, size: 0x8, addend: 0x0, symName: __ZNSt3__1eqB8ue170006IPP7AccountEEbRKNS_11__wrap_iterIT_EES8_, symObjAddr: 0x17948, symBinAddr: 0x100018698, symSize: 0x48 }
  - { offsetInCU: 0x14182, offset: 0x14182, size: 0x8, addend: 0x0, symName: __ZSt28__throw_bad_array_new_lengthB8ue170006v, symObjAddr: 0x2B2C, symBinAddr: 0x10000387C, symSize: 0x34 }
  - { offsetInCU: 0x15524, offset: 0x15524, size: 0x8, addend: 0x0, symName: __ZNSt3__16vectorIP7CommandNS_9allocatorIS2_EEE26__swap_out_circular_bufferERNS_14__split_bufferIS2_RS4_EE, symObjAddr: 0x4A30, symBinAddr: 0x100005780, symSize: 0x110 }
  - { offsetInCU: 0x15580, offset: 0x15580, size: 0x8, addend: 0x0, symName: __ZNSt3__16vectorIP13PrintOnlyPageNS_9allocatorIS2_EEE26__swap_out_circular_bufferERNS_14__split_bufferIS2_RS4_EE, symObjAddr: 0x698C, symBinAddr: 0x1000076DC, symSize: 0x110 }
  - { offsetInCU: 0x155D7, offset: 0x155D7, size: 0x8, addend: 0x0, symName: __ZNSt3__16vectorIP10menuVectorNS_9allocatorIS2_EEE26__swap_out_circular_bufferERNS_14__split_bufferIS2_RS4_EE, symObjAddr: 0xA9F4, symBinAddr: 0x10000B744, symSize: 0x110 }
  - { offsetInCU: 0x15647, offset: 0x15647, size: 0x8, addend: 0x0, symName: __ZNSt3__16vectorIP7AccountNS_9allocatorIS2_EEE26__swap_out_circular_bufferERNS_14__split_bufferIS2_RS4_EE, symObjAddr: 0xEFF4, symBinAddr: 0x10000FD44, symSize: 0x110 }
  - { offsetInCU: 0x156F5, offset: 0x156F5, size: 0x8, addend: 0x0, symName: __ZNSt3__16vectorIP4menuNS_9allocatorIS2_EEE26__swap_out_circular_bufferERNS_14__split_bufferIS2_RS4_EE, symObjAddr: 0x13EB8, symBinAddr: 0x100014C08, symSize: 0x110 }
  - { offsetInCU: 0x15757, offset: 0x15757, size: 0x8, addend: 0x0, symName: __ZNSt3__16vectorIP10menuVectorNS_9allocatorIS2_EEE26__swap_out_circular_bufferERNS_14__split_bufferIS2_RS4_EEPS2_, symObjAddr: 0x15E2C, symBinAddr: 0x100016B7C, symSize: 0x14C }
  - { offsetInCU: 0x17B13, offset: 0x17B13, size: 0x8, addend: 0x0, symName: __Z13findIndexBackNSt3__112basic_stringIcNS_11char_traitsIcEENS_9allocatorIcEEEEci, symObjAddr: 0x0, symBinAddr: 0x100000D50, symSize: 0xA0 }
  - { offsetInCU: 0x17B79, offset: 0x17B79, size: 0x8, addend: 0x0, symName: __ZNSt3__112basic_stringIcNS_11char_traitsIcEENS_9allocatorIcEEEixB8ue170006Em, symObjAddr: 0xA0, symBinAddr: 0x100000DF0, symSize: 0x30 }
  - { offsetInCU: 0x17BAE, offset: 0x17BAE, size: 0x8, addend: 0x0, symName: _main, symObjAddr: 0xD0, symBinAddr: 0x100000E20, symSize: 0x1388 }
  - { offsetInCU: 0x180DE, offset: 0x180DE, size: 0x8, addend: 0x0, symName: __ZN15AccountModifierC1Ev, symObjAddr: 0x1458, symBinAddr: 0x1000021A8, symSize: 0x2C }
  - { offsetInCU: 0x1810D, offset: 0x1810D, size: 0x8, addend: 0x0, symName: __ZNSt3__112basic_stringIcNS_11char_traitsIcEENS_9allocatorIcEEEC1B8ue170006ILi0EEEPKc, symObjAddr: 0x1484, symBinAddr: 0x1000021D4, symSize: 0x34 }
  - { offsetInCU: 0x1814C, offset: 0x1814C, size: 0x8, addend: 0x0, symName: __ZN11FileHandlerC1ENSt3__112basic_stringIcNS0_11char_traitsIcEENS0_9allocatorIcEEEE, symObjAddr: 0x14B8, symBinAddr: 0x100002208, symSize: 0x34 }
  - { offsetInCU: 0x18185, offset: 0x18185, size: 0x8, addend: 0x0, symName: __ZN11StoreVectorC1Ev, symObjAddr: 0x14F8, symBinAddr: 0x100002248, symSize: 0x2C }
  - { offsetInCU: 0x181AF, offset: 0x181AF, size: 0x8, addend: 0x0, symName: __ZN14AccountStorageC1Ev, symObjAddr: 0x1524, symBinAddr: 0x100002274, symSize: 0x2C }
  - { offsetInCU: 0x181D9, offset: 0x181D9, size: 0x8, addend: 0x0, symName: __ZN13PrintOnlyPageC1ENSt3__112basic_stringIcNS0_11char_traitsIcEENS0_9allocatorIcEEEE, symObjAddr: 0x1550, symBinAddr: 0x1000022A0, symSize: 0x34 }
  - { offsetInCU: 0x1827D, offset: 0x1827D, size: 0x8, addend: 0x0, symName: __ZN10SignInPageC1ER11FileHandlerR14AccountStorageR15AccountModifier, symObjAddr: 0x1584, symBinAddr: 0x1000022D4, symSize: 0x44 }
  - { offsetInCU: 0x1837C, offset: 0x1837C, size: 0x8, addend: 0x0, symName: __ZN14FunctionalPageI10SignInPageEC1ERKNSt3__112basic_stringIcNS2_11char_traitsIcEENS2_9allocatorIcEEEEPS0_, symObjAddr: 0x15C8, symBinAddr: 0x100002318, symSize: 0x3C }
  - { offsetInCU: 0x18428, offset: 0x18428, size: 0x8, addend: 0x0, symName: __ZN10SignUpPageC1ER11FileHandlerR14AccountStorageR15AccountModifier, symObjAddr: 0x1604, symBinAddr: 0x100002354, symSize: 0x44 }
  - { offsetInCU: 0x18527, offset: 0x18527, size: 0x8, addend: 0x0, symName: __ZN14FunctionalPageI10SignUpPageEC1ERKNSt3__112basic_stringIcNS2_11char_traitsIcEENS2_9allocatorIcEEEEPS0_, symObjAddr: 0x1648, symBinAddr: 0x100002398, symSize: 0x3C }
  - { offsetInCU: 0x1856D, offset: 0x1856D, size: 0x8, addend: 0x0, symName: __ZN13PrintOnlyPage7addMenuEP7Command, symObjAddr: 0x1684, symBinAddr: 0x1000023D4, symSize: 0x30 }
  - { offsetInCU: 0x1891B, offset: 0x1891B, size: 0x8, addend: 0x0, symName: __ZN10SearchPageC1ER11FileHandlerR11StoreVectorR13StoreModifier, symObjAddr: 0x16B4, symBinAddr: 0x100002404, symSize: 0x44 }
  - { offsetInCU: 0x18A1D, offset: 0x18A1D, size: 0x8, addend: 0x0, symName: __ZN14FunctionalPageI10SearchPageEC1ERKNSt3__112basic_stringIcNS2_11char_traitsIcEENS2_9allocatorIcEEEEPS0_, symObjAddr: 0x16F8, symBinAddr: 0x100002448, symSize: 0x3C }
  - { offsetInCU: 0x18B35, offset: 0x18B35, size: 0x8, addend: 0x0, symName: __ZN14FunctionalPageI14CategoriesPageEC1ERKNSt3__112basic_stringIcNS2_11char_traitsIcEENS2_9allocatorIcEEEEPS0_, symObjAddr: 0x1734, symBinAddr: 0x100002484, symSize: 0x3C }
  - { offsetInCU: 0x18C4D, offset: 0x18C4D, size: 0x8, addend: 0x0, symName: __ZN14FunctionalPageI16OrderHistoryPageEC1ERKNSt3__112basic_stringIcNS2_11char_traitsIcEENS2_9allocatorIcEEEEPS0_, symObjAddr: 0x1770, symBinAddr: 0x1000024C0, symSize: 0x3C }
  - { offsetInCU: 0x18D65, offset: 0x18D65, size: 0x8, addend: 0x0, symName: __ZN14FunctionalPageI13FavoritesPageEC1ERKNSt3__112basic_stringIcNS2_11char_traitsIcEENS2_9allocatorIcEEEEPS0_, symObjAddr: 0x17AC, symBinAddr: 0x1000024FC, symSize: 0x3C }
  - { offsetInCU: 0x18E17, offset: 0x18E17, size: 0x8, addend: 0x0, symName: __ZN15AccountInfoPageC1ER11FileHandlerR14AccountStorageR15AccountModifier, symObjAddr: 0x17E8, symBinAddr: 0x100002538, symSize: 0x44 }
  - { offsetInCU: 0x18F19, offset: 0x18F19, size: 0x8, addend: 0x0, symName: __ZN14FunctionalPageI15AccountInfoPageEC1ERKNSt3__112basic_stringIcNS2_11char_traitsIcEENS2_9allocatorIcEEEEPS0_, symObjAddr: 0x182C, symBinAddr: 0x10000257C, symSize: 0x3C }
  - { offsetInCU: 0x18FCB, offset: 0x18FCB, size: 0x8, addend: 0x0, symName: __ZN20ModifyRestaurantPageC1ER11FileHandlerR11StoreVectorR13StoreModifier, symObjAddr: 0x1868, symBinAddr: 0x1000025B8, symSize: 0x44 }
  - { offsetInCU: 0x190CD, offset: 0x190CD, size: 0x8, addend: 0x0, symName: __ZN14FunctionalPageI20ModifyRestaurantPageEC1ERKNSt3__112basic_stringIcNS2_11char_traitsIcEENS2_9allocatorIcEEEEPS0_, symObjAddr: 0x18AC, symBinAddr: 0x1000025FC, symSize: 0x3C }
  - { offsetInCU: 0x1915B, offset: 0x1915B, size: 0x8, addend: 0x0, symName: __ZN25CategoriesRestaurantsPageC1ENSt3__112basic_stringIcNS0_11char_traitsIcEENS0_9allocatorIcEEEE, symObjAddr: 0x18E8, symBinAddr: 0x100002638, symSize: 0x34 }
  - { offsetInCU: 0x19240, offset: 0x19240, size: 0x8, addend: 0x0, symName: __ZN14FunctionalPageI25CategoriesRestaurantsPageEC1ERKNSt3__112basic_stringIcNS2_11char_traitsIcEENS2_9allocatorIcEEEEPS0_, symObjAddr: 0x191C, symBinAddr: 0x10000266C, symSize: 0x3C }
  - { offsetInCU: 0x19286, offset: 0x19286, size: 0x8, addend: 0x0, symName: __ZN13pageControlerC1ER14AccountStorage, symObjAddr: 0x1958, symBinAddr: 0x1000026A8, symSize: 0x34 }
  - { offsetInCU: 0x192BE, offset: 0x192BE, size: 0x8, addend: 0x0, symName: __ZN13pageControler15addPageTemplateEP13PrintOnlyPage, symObjAddr: 0x198C, symBinAddr: 0x1000026DC, symSize: 0x34 }
  - { offsetInCU: 0x192F2, offset: 0x192F2, size: 0x8, addend: 0x0, symName: __ZN13pageControler7addPageEP13PrintOnlyPage, symObjAddr: 0x19C0, symBinAddr: 0x100002710, symSize: 0x34 }
  - { offsetInCU: 0x19326, offset: 0x19326, size: 0x8, addend: 0x0, symName: __ZN13pageControler3runEv, symObjAddr: 0x19F4, symBinAddr: 0x100002744, symSize: 0xBC }
  - { offsetInCU: 0x1934C, offset: 0x1934C, size: 0x8, addend: 0x0, symName: __ZN13pageControlerD1Ev, symObjAddr: 0x1AB0, symBinAddr: 0x100002800, symSize: 0x2C }
  - { offsetInCU: 0x19378, offset: 0x19378, size: 0x8, addend: 0x0, symName: __ZN14FunctionalPageI25CategoriesRestaurantsPageED1Ev, symObjAddr: 0x1ADC, symBinAddr: 0x10000282C, symSize: 0x2C }
  - { offsetInCU: 0x193A4, offset: 0x193A4, size: 0x8, addend: 0x0, symName: __ZN13PrintOnlyPageD1Ev, symObjAddr: 0x1B08, symBinAddr: 0x100002858, symSize: 0x2C }
  - { offsetInCU: 0x193D0, offset: 0x193D0, size: 0x8, addend: 0x0, symName: __ZN14FunctionalPageI20ModifyRestaurantPageED1Ev, symObjAddr: 0x1B34, symBinAddr: 0x100002884, symSize: 0x2C }
  - { offsetInCU: 0x193FC, offset: 0x193FC, size: 0x8, addend: 0x0, symName: __ZN14FunctionalPageI15AccountInfoPageED1Ev, symObjAddr: 0x1B60, symBinAddr: 0x1000028B0, symSize: 0x2C }
  - { offsetInCU: 0x19428, offset: 0x19428, size: 0x8, addend: 0x0, symName: __ZN14FunctionalPageI13FavoritesPageED1Ev, symObjAddr: 0x1B8C, symBinAddr: 0x1000028DC, symSize: 0x2C }
  - { offsetInCU: 0x19454, offset: 0x19454, size: 0x8, addend: 0x0, symName: __ZN14FunctionalPageI16OrderHistoryPageED1Ev, symObjAddr: 0x1BB8, symBinAddr: 0x100002908, symSize: 0x2C }
  - { offsetInCU: 0x19480, offset: 0x19480, size: 0x8, addend: 0x0, symName: __ZN14FunctionalPageI14CategoriesPageED1Ev, symObjAddr: 0x1BE4, symBinAddr: 0x100002934, symSize: 0x2C }
  - { offsetInCU: 0x194AC, offset: 0x194AC, size: 0x8, addend: 0x0, symName: __ZN14FunctionalPageI10SearchPageED1Ev, symObjAddr: 0x1C10, symBinAddr: 0x100002960, symSize: 0x2C }
  - { offsetInCU: 0x194D8, offset: 0x194D8, size: 0x8, addend: 0x0, symName: __ZN14FunctionalPageI10SignUpPageED1Ev, symObjAddr: 0x1C3C, symBinAddr: 0x10000298C, symSize: 0x2C }
  - { offsetInCU: 0x19504, offset: 0x19504, size: 0x8, addend: 0x0, symName: __ZN14FunctionalPageI10SignInPageED1Ev, symObjAddr: 0x1C68, symBinAddr: 0x1000029B8, symSize: 0x2C }
  - { offsetInCU: 0x19530, offset: 0x19530, size: 0x8, addend: 0x0, symName: __ZN14AccountStorageD1Ev, symObjAddr: 0x1C94, symBinAddr: 0x1000029E4, symSize: 0x2C }
  - { offsetInCU: 0x1955C, offset: 0x1955C, size: 0x8, addend: 0x0, symName: __ZN11StoreVectorD1Ev, symObjAddr: 0x1CC0, symBinAddr: 0x100002A10, symSize: 0x2C }
  - { offsetInCU: 0x19586, offset: 0x19586, size: 0x8, addend: 0x0, symName: __ZN11FileHandlerD1Ev, symObjAddr: 0x1CEC, symBinAddr: 0x100002A3C, symSize: 0x2C }
  - { offsetInCU: 0x195B0, offset: 0x195B0, size: 0x8, addend: 0x0, symName: __ZN15AccountModifierC2Ev, symObjAddr: 0x1D18, symBinAddr: 0x100002A68, symSize: 0x14 }
  - { offsetInCU: 0x195DA, offset: 0x195DA, size: 0x8, addend: 0x0, symName: __ZN11FileHandlerC2ENSt3__112basic_stringIcNS0_11char_traitsIcEENS0_9allocatorIcEEEE, symObjAddr: 0x1D2C, symBinAddr: 0x100002A7C, symSize: 0x1C0 }
  - { offsetInCU: 0x19613, offset: 0x19613, size: 0x8, addend: 0x0, symName: __ZNSt3__113basic_fstreamIcNS_11char_traitsIcEEEC1Ev, symObjAddr: 0x1EEC, symBinAddr: 0x100002C3C, symSize: 0x10C }
  - { offsetInCU: 0x1963F, offset: 0x1963F, size: 0x8, addend: 0x0, symName: __ZNSt3__112basic_stringIcNS_11char_traitsIcEENS_9allocatorIcEEEC1B8ue170006Ev, symObjAddr: 0x1FF8, symBinAddr: 0x100002D48, symSize: 0x2C }
  - { offsetInCU: 0x19669, offset: 0x19669, size: 0x8, addend: 0x0, symName: __ZNSt3__118basic_stringstreamIcNS_11char_traitsIcEENS_9allocatorIcEEEC1B8ue170006Ev, symObjAddr: 0x2024, symBinAddr: 0x100002D74, symSize: 0x110 }
  - { offsetInCU: 0x19693, offset: 0x19693, size: 0x8, addend: 0x0, symName: __ZNSt3__113basic_fstreamIcNS_11char_traitsIcEEE4openERKNS_12basic_stringIcS2_NS_9allocatorIcEEEEj, symObjAddr: 0x2134, symBinAddr: 0x100002E84, symSize: 0x84 }
  - { offsetInCU: 0x196D9, offset: 0x196D9, size: 0x8, addend: 0x0, symName: __ZNKSt3__19basic_iosIcNS_11char_traitsIcEEE4failB8ue170006Ev, symObjAddr: 0x21B8, symBinAddr: 0x100002F08, symSize: 0x28 }
  - { offsetInCU: 0x196FF, offset: 0x196FF, size: 0x8, addend: 0x0, symName: __ZNSt3__113basic_ostreamIcNS_11char_traitsIcEEElsB8ue170006EPFRS3_S4_E, symObjAddr: 0x2228, symBinAddr: 0x100002F78, symSize: 0x2C }
  - { offsetInCU: 0x19738, offset: 0x19738, size: 0x8, addend: 0x0, symName: __ZNSt3__118basic_stringstreamIcNS_11char_traitsIcEENS_9allocatorIcEEED1Ev, symObjAddr: 0x22AC, symBinAddr: 0x100002FFC, symSize: 0x70 }
  - { offsetInCU: 0x1976A, offset: 0x1976A, size: 0x8, addend: 0x0, symName: __ZNSt3__113basic_fstreamIcNS_11char_traitsIcEEED1Ev, symObjAddr: 0x231C, symBinAddr: 0x10000306C, symSize: 0x70 }
  - { offsetInCU: 0x19796, offset: 0x19796, size: 0x8, addend: 0x0, symName: __ZNSt3__19basic_iosIcNS_11char_traitsIcEEEC2B8ue170006Ev, symObjAddr: 0x238C, symBinAddr: 0x1000030DC, symSize: 0x44 }
  - { offsetInCU: 0x197C0, offset: 0x197C0, size: 0x8, addend: 0x0, symName: __ZNSt3__114basic_iostreamIcNS_11char_traitsIcEEEC2B8ue170006EPNS_15basic_streambufIcS2_EE, symObjAddr: 0x23D0, symBinAddr: 0x100003120, symSize: 0xB4 }
  - { offsetInCU: 0x19806, offset: 0x19806, size: 0x8, addend: 0x0, symName: __ZNSt3__113basic_fstreamIcNS_11char_traitsIcEEED0Ev, symObjAddr: 0x2484, symBinAddr: 0x1000031D4, symSize: 0x58 }
  - { offsetInCU: 0x19832, offset: 0x19832, size: 0x8, addend: 0x0, symName: __ZThn16_NSt3__113basic_fstreamIcNS_11char_traitsIcEEED1Ev, symObjAddr: 0x24DC, symBinAddr: 0x10000322C, symSize: 0x1C }
  - { offsetInCU: 0x19848, offset: 0x19848, size: 0x8, addend: 0x0, symName: __ZThn16_NSt3__113basic_fstreamIcNS_11char_traitsIcEEED0Ev, symObjAddr: 0x24F8, symBinAddr: 0x100003248, symSize: 0x18 }
  - { offsetInCU: 0x1985E, offset: 0x1985E, size: 0x8, addend: 0x0, symName: __ZTv0_n24_NSt3__113basic_fstreamIcNS_11char_traitsIcEEED1Ev, symObjAddr: 0x2510, symBinAddr: 0x100003260, symSize: 0x28 }
  - { offsetInCU: 0x19874, offset: 0x19874, size: 0x8, addend: 0x0, symName: __ZTv0_n24_NSt3__113basic_fstreamIcNS_11char_traitsIcEEED0Ev, symObjAddr: 0x2538, symBinAddr: 0x100003288, symSize: 0x20 }
  - { offsetInCU: 0x1988A, offset: 0x1988A, size: 0x8, addend: 0x0, symName: __ZNSt3__18ios_baseC2B8ue170006Ev, symObjAddr: 0x2558, symBinAddr: 0x1000032A8, symSize: 0x24 }
  - { offsetInCU: 0x198B4, offset: 0x198B4, size: 0x8, addend: 0x0, symName: __ZNSt3__113basic_istreamIcNS_11char_traitsIcEEEC2B8ue170006EPNS_15basic_streambufIcS2_EE, symObjAddr: 0x257C, symBinAddr: 0x1000032CC, symSize: 0x64 }
  - { offsetInCU: 0x198F9, offset: 0x198F9, size: 0x8, addend: 0x0, symName: __ZNSt3__113basic_ostreamIcNS_11char_traitsIcEEEC2B8ue170006Ev, symObjAddr: 0x25E0, symBinAddr: 0x100003330, symSize: 0x34 }
  - { offsetInCU: 0x19930, offset: 0x19930, size: 0x8, addend: 0x0, symName: __ZNSt3__19basic_iosIcNS_11char_traitsIcEEE4initB8ue170006EPNS_15basic_streambufIcS2_EE, symObjAddr: 0x2614, symBinAddr: 0x100003364, symSize: 0x44 }
  - { offsetInCU: 0x19967, offset: 0x19967, size: 0x8, addend: 0x0, symName: __ZNSt3__111char_traitsIcE3eofB8ue170006Ev, symObjAddr: 0x2658, symBinAddr: 0x1000033A8, symSize: 0x8 }
  - { offsetInCU: 0x1997B, offset: 0x1997B, size: 0x8, addend: 0x0, symName: __ZNSt3__112basic_stringIcNS_11char_traitsIcEENS_9allocatorIcEEEC2B8ue170006Ev, symObjAddr: 0x2660, symBinAddr: 0x1000033B0, symSize: 0x3C }
  - { offsetInCU: 0x199AB, offset: 0x199AB, size: 0x8, addend: 0x0, symName: __ZNSt3__117__compressed_pairINS_12basic_stringIcNS_11char_traitsIcEENS_9allocatorIcEEE5__repES5_EC1B8ue170006INS_18__default_init_tagESA_EEOT_OT0_, symObjAddr: 0x269C, symBinAddr: 0x1000033EC, symSize: 0x3C }
  - { offsetInCU: 0x19A03, offset: 0x19A03, size: 0x8, addend: 0x0, symName: __ZNSt3__112basic_stringIcNS_11char_traitsIcEENS_9allocatorIcEEE14__default_initB8ue170006Ev, symObjAddr: 0x26D8, symBinAddr: 0x100003428, symSize: 0xB0 }
  - { offsetInCU: 0x19A55, offset: 0x19A55, size: 0x8, addend: 0x0, symName: __ZNSt3__117__compressed_pairINS_12basic_stringIcNS_11char_traitsIcEENS_9allocatorIcEEE5__repES5_EC2B8ue170006INS_18__default_init_tagESA_EEOT_OT0_, symObjAddr: 0x2788, symBinAddr: 0x1000034D8, symSize: 0x3C }
  - { offsetInCU: 0x19AAD, offset: 0x19AAD, size: 0x8, addend: 0x0, symName: __ZNSt3__122__compressed_pair_elemINS_12basic_stringIcNS_11char_traitsIcEENS_9allocatorIcEEE5__repELi0ELb0EEC2B8ue170006ENS_18__default_init_tagE, symObjAddr: 0x27C4, symBinAddr: 0x100003514, symSize: 0x14 }
  - { offsetInCU: 0x19AE1, offset: 0x19AE1, size: 0x8, addend: 0x0, symName: __ZNSt3__122__compressed_pair_elemINS_9allocatorIcEELi1ELb1EEC2B8ue170006ENS_18__default_init_tagE, symObjAddr: 0x27D8, symBinAddr: 0x100003528, symSize: 0x2C }
  - { offsetInCU: 0x19B15, offset: 0x19B15, size: 0x8, addend: 0x0, symName: __ZNSt3__19allocatorIcEC2B8ue170006Ev, symObjAddr: 0x2804, symBinAddr: 0x100003554, symSize: 0x2C }
  - { offsetInCU: 0x19B3F, offset: 0x19B3F, size: 0x8, addend: 0x0, symName: __ZNSt3__116__non_trivial_ifILb1ENS_9allocatorIcEEEC2B8ue170006Ev, symObjAddr: 0x2830, symBinAddr: 0x100003580, symSize: 0x14 }
  - { offsetInCU: 0x19B69, offset: 0x19B69, size: 0x8, addend: 0x0, symName: __ZNSt3__117__compressed_pairINS_12basic_stringIcNS_11char_traitsIcEENS_9allocatorIcEEE5__repES5_E5firstB8ue170006Ev, symObjAddr: 0x2844, symBinAddr: 0x100003594, symSize: 0x24 }
  - { offsetInCU: 0x19B8F, offset: 0x19B8F, size: 0x8, addend: 0x0, symName: __ZNSt3__112basic_stringIcNS_11char_traitsIcEENS_9allocatorIcEEE11__recommendB8ue170006Em, symObjAddr: 0x2874, symBinAddr: 0x1000035C4, symSize: 0x9C }
  - { offsetInCU: 0x19BC2, offset: 0x19BC2, size: 0x8, addend: 0x0, symName: __ZNSt3__116allocator_traitsINS_9allocatorIcEEE8allocateB8ue170006ERS2_m, symObjAddr: 0x2910, symBinAddr: 0x100003660, symSize: 0x2C }
  - { offsetInCU: 0x19BF5, offset: 0x19BF5, size: 0x8, addend: 0x0, symName: __ZNSt3__112basic_stringIcNS_11char_traitsIcEENS_9allocatorIcEEE7__allocB8ue170006Ev, symObjAddr: 0x293C, symBinAddr: 0x10000368C, symSize: 0x24 }
  - { offsetInCU: 0x19C1B, offset: 0x19C1B, size: 0x8, addend: 0x0, symName: __ZNSt3__112basic_stringIcNS_11char_traitsIcEENS_9allocatorIcEEE16__begin_lifetimeB8ue170006EPcm, symObjAddr: 0x2960, symBinAddr: 0x1000036B0, symSize: 0x14 }
  - { offsetInCU: 0x19C4E, offset: 0x19C4E, size: 0x8, addend: 0x0, symName: __ZNSt3__112basic_stringIcNS_11char_traitsIcEENS_9allocatorIcEEE18__set_long_pointerB8ue170006EPc, symObjAddr: 0x2974, symBinAddr: 0x1000036C4, symSize: 0x38 }
  - { offsetInCU: 0x19C83, offset: 0x19C83, size: 0x8, addend: 0x0, symName: __ZNSt3__112basic_stringIcNS_11char_traitsIcEENS_9allocatorIcEEE14__set_long_capB8ue170006Em, symObjAddr: 0x29AC, symBinAddr: 0x1000036FC, symSize: 0x70 }
  - { offsetInCU: 0x19CB8, offset: 0x19CB8, size: 0x8, addend: 0x0, symName: __ZNSt3__112basic_stringIcNS_11char_traitsIcEENS_9allocatorIcEEE15__set_long_sizeB8ue170006Em, symObjAddr: 0x2A1C, symBinAddr: 0x10000376C, symSize: 0x38 }
  - { offsetInCU: 0x19CED, offset: 0x19CED, size: 0x8, addend: 0x0, symName: __ZNSt3__122__compressed_pair_elemINS_12basic_stringIcNS_11char_traitsIcEENS_9allocatorIcEEE5__repELi0ELb0EE5__getB8ue170006Ev, symObjAddr: 0x2A54, symBinAddr: 0x1000037A4, symSize: 0x14 }
  - { offsetInCU: 0x19D13, offset: 0x19D13, size: 0x8, addend: 0x0, symName: __ZNSt3__112basic_stringIcNS_11char_traitsIcEENS_9allocatorIcEEE10__align_itB8ue170006ILm16EEEmm, symObjAddr: 0x2A68, symBinAddr: 0x1000037B8, symSize: 0x1C }
  - { offsetInCU: 0x19D41, offset: 0x19D41, size: 0x8, addend: 0x0, symName: __ZNSt3__19allocatorIcE8allocateB8ue170006Em, symObjAddr: 0x2A84, symBinAddr: 0x1000037D4, symSize: 0x84 }
  - { offsetInCU: 0x19D7F, offset: 0x19D7F, size: 0x8, addend: 0x0, symName: __ZNSt3__116allocator_traitsINS_9allocatorIcEEE8max_sizeB8ue170006IS2_vEEmRKS2_, symObjAddr: 0x2B08, symBinAddr: 0x100003858, symSize: 0x24 }
  - { offsetInCU: 0x19DAD, offset: 0x19DAD, size: 0x8, addend: 0x0, symName: __ZNKSt3__19allocatorIcE8max_sizeB8ue170006Ev, symObjAddr: 0x2B88, symBinAddr: 0x1000038D8, symSize: 0x14 }
  - { offsetInCU: 0x19DD3, offset: 0x19DD3, size: 0x8, addend: 0x0, symName: __ZNSt3__117__compressed_pairINS_12basic_stringIcNS_11char_traitsIcEENS_9allocatorIcEEE5__repES5_E6secondB8ue170006Ev, symObjAddr: 0x2BC0, symBinAddr: 0x100003910, symSize: 0x24 }
  - { offsetInCU: 0x19DF9, offset: 0x19DF9, size: 0x8, addend: 0x0, symName: __ZNSt3__122__compressed_pair_elemINS_9allocatorIcEELi1ELb1EE5__getB8ue170006Ev, symObjAddr: 0x2BE4, symBinAddr: 0x100003934, symSize: 0x14 }
  - { offsetInCU: 0x19E1F, offset: 0x19E1F, size: 0x8, addend: 0x0, symName: __ZNSt3__115basic_stringbufIcNS_11char_traitsIcEENS_9allocatorIcEEEC1B8ue170006Ej, symObjAddr: 0x2BF8, symBinAddr: 0x100003948, symSize: 0x34 }
  - { offsetInCU: 0x19E58, offset: 0x19E58, size: 0x8, addend: 0x0, symName: __ZNSt3__115basic_stringbufIcNS_11char_traitsIcEENS_9allocatorIcEEEC2B8ue170006Ej, symObjAddr: 0x2C2C, symBinAddr: 0x10000397C, symSize: 0x90 }
  - { offsetInCU: 0x19E91, offset: 0x19E91, size: 0x8, addend: 0x0, symName: __ZNSt3__113basic_filebufIcNS_11char_traitsIcEEE4openERKNS_12basic_stringIcS2_NS_9allocatorIcEEEEj, symObjAddr: 0x2CBC, symBinAddr: 0x100003A0C, symSize: 0x44 }
  - { offsetInCU: 0x19ED5, offset: 0x19ED5, size: 0x8, addend: 0x0, symName: __ZNSt3__19basic_iosIcNS_11char_traitsIcEEE5clearB8ue170006Ej, symObjAddr: 0x2D00, symBinAddr: 0x100003A50, symSize: 0x2C }
  - { offsetInCU: 0x19F0A, offset: 0x19F0A, size: 0x8, addend: 0x0, symName: __ZNSt3__19basic_iosIcNS_11char_traitsIcEEE8setstateB8ue170006Ej, symObjAddr: 0x2D2C, symBinAddr: 0x100003A7C, symSize: 0x2C }
  - { offsetInCU: 0x19F3F, offset: 0x19F3F, size: 0x8, addend: 0x0, symName: __ZNKSt3__112basic_stringIcNS_11char_traitsIcEENS_9allocatorIcEEE5c_strB8ue170006Ev, symObjAddr: 0x2D58, symBinAddr: 0x100003AA8, symSize: 0x24 }
  - { offsetInCU: 0x19F65, offset: 0x19F65, size: 0x8, addend: 0x0, symName: __ZNKSt3__112basic_stringIcNS_11char_traitsIcEENS_9allocatorIcEEE4dataB8ue170006Ev, symObjAddr: 0x2D7C, symBinAddr: 0x100003ACC, symSize: 0x28 }
  - { offsetInCU: 0x19F8B, offset: 0x19F8B, size: 0x8, addend: 0x0, symName: __ZNKSt3__112basic_stringIcNS_11char_traitsIcEENS_9allocatorIcEEE13__get_pointerB8ue170006Ev, symObjAddr: 0x2DB8, symBinAddr: 0x100003B08, symSize: 0x54 }
  - { offsetInCU: 0x19FB1, offset: 0x19FB1, size: 0x8, addend: 0x0, symName: __ZNKSt3__112basic_stringIcNS_11char_traitsIcEENS_9allocatorIcEEE9__is_longB8ue170006Ev, symObjAddr: 0x2E0C, symBinAddr: 0x100003B5C, symSize: 0x74 }
  - { offsetInCU: 0x19FD7, offset: 0x19FD7, size: 0x8, addend: 0x0, symName: __ZNKSt3__112basic_stringIcNS_11char_traitsIcEENS_9allocatorIcEEE18__get_long_pointerB8ue170006Ev, symObjAddr: 0x2E80, symBinAddr: 0x100003BD0, symSize: 0x28 }
  - { offsetInCU: 0x19FFD, offset: 0x19FFD, size: 0x8, addend: 0x0, symName: __ZNKSt3__112basic_stringIcNS_11char_traitsIcEENS_9allocatorIcEEE19__get_short_pointerB8ue170006Ev, symObjAddr: 0x2EA8, symBinAddr: 0x100003BF8, symSize: 0x28 }
  - { offsetInCU: 0x1A023, offset: 0x1A023, size: 0x8, addend: 0x0, symName: __ZNKSt3__117__compressed_pairINS_12basic_stringIcNS_11char_traitsIcEENS_9allocatorIcEEE5__repES5_E5firstB8ue170006Ev, symObjAddr: 0x2ED0, symBinAddr: 0x100003C20, symSize: 0x24 }
  - { offsetInCU: 0x1A049, offset: 0x1A049, size: 0x8, addend: 0x0, symName: __ZNKSt3__122__compressed_pair_elemINS_12basic_stringIcNS_11char_traitsIcEENS_9allocatorIcEEE5__repELi0ELb0EE5__getB8ue170006Ev, symObjAddr: 0x2EF4, symBinAddr: 0x100003C44, symSize: 0x14 }
  - { offsetInCU: 0x1A06F, offset: 0x1A06F, size: 0x8, addend: 0x0, symName: __ZNSt3__114pointer_traitsIPKcE10pointer_toB8ue170006ERS1_, symObjAddr: 0x2F08, symBinAddr: 0x100003C58, symSize: 0x14 }
  - { offsetInCU: 0x1A092, offset: 0x1A092, size: 0x8, addend: 0x0, symName: __ZNSt3__18ios_base8setstateB8ue170006Ej, symObjAddr: 0x2F1C, symBinAddr: 0x100003C6C, symSize: 0x34 }
  - { offsetInCU: 0x1A0C9, offset: 0x1A0C9, size: 0x8, addend: 0x0, symName: __ZNKSt3__18ios_base4failB8ue170006Ev, symObjAddr: 0x2F50, symBinAddr: 0x100003CA0, symSize: 0x28 }
  - { offsetInCU: 0x1A0F1, offset: 0x1A0F1, size: 0x8, addend: 0x0, symName: __ZNSt3__111char_traitsIcE6lengthB8ue170006EPKc, symObjAddr: 0x316C, symBinAddr: 0x100003EBC, symSize: 0x48 }
  - { offsetInCU: 0x1A132, offset: 0x1A132, size: 0x8, addend: 0x0, symName: __ZNKSt3__113basic_ostreamIcNS_11char_traitsIcEEE6sentrycvbB8ue170006Ev, symObjAddr: 0x31B4, symBinAddr: 0x100003F04, symSize: 0x1C }
  - { offsetInCU: 0x1A158, offset: 0x1A158, size: 0x8, addend: 0x0, symName: __ZNSt3__119ostreambuf_iteratorIcNS_11char_traitsIcEEEC1B8ue170006ERNS_13basic_ostreamIcS2_EE, symObjAddr: 0x3418, symBinAddr: 0x100004168, symSize: 0x34 }
  - { offsetInCU: 0x1A190, offset: 0x1A190, size: 0x8, addend: 0x0, symName: __ZNKSt3__18ios_base5flagsB8ue170006Ev, symObjAddr: 0x344C, symBinAddr: 0x10000419C, symSize: 0x18 }
  - { offsetInCU: 0x1A1B8, offset: 0x1A1B8, size: 0x8, addend: 0x0, symName: __ZNKSt3__19basic_iosIcNS_11char_traitsIcEEE4fillB8ue170006Ev, symObjAddr: 0x3464, symBinAddr: 0x1000041B4, symSize: 0x64 }
  - { offsetInCU: 0x1A1E0, offset: 0x1A1E0, size: 0x8, addend: 0x0, symName: __ZNKSt3__119ostreambuf_iteratorIcNS_11char_traitsIcEEE6failedB8ue170006Ev, symObjAddr: 0x34C8, symBinAddr: 0x100004218, symSize: 0x24 }
  - { offsetInCU: 0x1A206, offset: 0x1A206, size: 0x8, addend: 0x0, symName: __ZNKSt3__18ios_base5widthB8ue170006Ev, symObjAddr: 0x34EC, symBinAddr: 0x10000423C, symSize: 0x18 }
  - { offsetInCU: 0x1A22E, offset: 0x1A22E, size: 0x8, addend: 0x0, symName: __ZNSt3__115basic_streambufIcNS_11char_traitsIcEEE5sputnB8ue170006EPKcl, symObjAddr: 0x3504, symBinAddr: 0x100004254, symSize: 0x3C }
  - { offsetInCU: 0x1A270, offset: 0x1A270, size: 0x8, addend: 0x0, symName: __ZNSt3__112basic_stringIcNS_11char_traitsIcEENS_9allocatorIcEEEC1B8ue170006Emc, symObjAddr: 0x3540, symBinAddr: 0x100004290, symSize: 0x3C }
  - { offsetInCU: 0x1A2B8, offset: 0x1A2B8, size: 0x8, addend: 0x0, symName: __ZNSt3__18ios_base5widthB8ue170006El, symObjAddr: 0x357C, symBinAddr: 0x1000042CC, symSize: 0x2C }
  - { offsetInCU: 0x1A2FE, offset: 0x1A2FE, size: 0x8, addend: 0x0, symName: __ZNSt3__112basic_stringIcNS_11char_traitsIcEENS_9allocatorIcEEEC2B8ue170006Emc, symObjAddr: 0x35A8, symBinAddr: 0x1000042F8, symSize: 0x4C }
  - { offsetInCU: 0x1A346, offset: 0x1A346, size: 0x8, addend: 0x0, symName: __ZNSt3__119ostreambuf_iteratorIcNS_11char_traitsIcEEEC2B8ue170006ERNS_13basic_ostreamIcS2_EE, symObjAddr: 0x35F4, symBinAddr: 0x100004344, symSize: 0x68 }
  - { offsetInCU: 0x1A37E, offset: 0x1A37E, size: 0x8, addend: 0x0, symName: __ZNKSt3__19basic_iosIcNS_11char_traitsIcEEE5rdbufB8ue170006Ev, symObjAddr: 0x365C, symBinAddr: 0x1000043AC, symSize: 0x24 }
  - { offsetInCU: 0x1A3A6, offset: 0x1A3A6, size: 0x8, addend: 0x0, symName: __ZNKSt3__18ios_base5rdbufB8ue170006Ev, symObjAddr: 0x3680, symBinAddr: 0x1000043D0, symSize: 0x18 }
  - { offsetInCU: 0x1A3CC, offset: 0x1A3CC, size: 0x8, addend: 0x0, symName: __ZNSt3__111char_traitsIcE11eq_int_typeB8ue170006Eii, symObjAddr: 0x3698, symBinAddr: 0x1000043E8, symSize: 0x28 }
  - { offsetInCU: 0x1A3FF, offset: 0x1A3FF, size: 0x8, addend: 0x0, symName: __ZNKSt3__19basic_iosIcNS_11char_traitsIcEEE5widenB8ue170006Ec, symObjAddr: 0x36C0, symBinAddr: 0x100004410, symSize: 0x8C }
  - { offsetInCU: 0x1A45E, offset: 0x1A45E, size: 0x8, addend: 0x0, symName: __ZNKSt3__15ctypeIcE5widenB8ue170006Ec, symObjAddr: 0x3778, symBinAddr: 0x1000044C8, symSize: 0x38 }
  - { offsetInCU: 0x1A493, offset: 0x1A493, size: 0x8, addend: 0x0, symName: __ZNSt3__118basic_stringstreamIcNS_11char_traitsIcEENS_9allocatorIcEEED2Ev, symObjAddr: 0x37D4, symBinAddr: 0x100004524, symSize: 0xA4 }
  - { offsetInCU: 0x1A4CD, offset: 0x1A4CD, size: 0x8, addend: 0x0, symName: __ZThn16_NSt3__118basic_stringstreamIcNS_11char_traitsIcEENS_9allocatorIcEEED1Ev, symObjAddr: 0x3878, symBinAddr: 0x1000045C8, symSize: 0x1C }
  - { offsetInCU: 0x1A4E4, offset: 0x1A4E4, size: 0x8, addend: 0x0, symName: __ZTv0_n24_NSt3__118basic_stringstreamIcNS_11char_traitsIcEENS_9allocatorIcEEED1Ev, symObjAddr: 0x3894, symBinAddr: 0x1000045E4, symSize: 0x28 }
  - { offsetInCU: 0x1A500, offset: 0x1A500, size: 0x8, addend: 0x0, symName: __ZNSt3__115basic_stringbufIcNS_11char_traitsIcEENS_9allocatorIcEEED1Ev, symObjAddr: 0x38BC, symBinAddr: 0x10000460C, symSize: 0x2C }
  - { offsetInCU: 0x1A52D, offset: 0x1A52D, size: 0x8, addend: 0x0, symName: __ZNSt3__115basic_stringbufIcNS_11char_traitsIcEENS_9allocatorIcEEED2Ev, symObjAddr: 0x38E8, symBinAddr: 0x100004638, symSize: 0x78 }
  - { offsetInCU: 0x1A55A, offset: 0x1A55A, size: 0x8, addend: 0x0, symName: __ZNSt3__113basic_fstreamIcNS_11char_traitsIcEEED2Ev, symObjAddr: 0x3960, symBinAddr: 0x1000046B0, symSize: 0xA4 }
  - { offsetInCU: 0x1A593, offset: 0x1A593, size: 0x8, addend: 0x0, symName: __ZN11StoreVectorC2Ev, symObjAddr: 0x3A04, symBinAddr: 0x100004754, symSize: 0xA8 }
  - { offsetInCU: 0x1A5BD, offset: 0x1A5BD, size: 0x8, addend: 0x0, symName: __ZNSt3__16vectorIP10menuVectorNS_9allocatorIS2_EEEC1B8ue170006Ev, symObjAddr: 0x3AAC, symBinAddr: 0x1000047FC, symSize: 0x2C }
  - { offsetInCU: 0x1A5E7, offset: 0x1A5E7, size: 0x8, addend: 0x0, symName: __ZNSt3__16vectorIP10menuVectorNS_9allocatorIS2_EEEC2B8ue170006Ev, symObjAddr: 0x3AD8, symBinAddr: 0x100004828, symSize: 0x44 }
  - { offsetInCU: 0x1A617, offset: 0x1A617, size: 0x8, addend: 0x0, symName: __ZNSt3__117__compressed_pairIPP10menuVectorNS_9allocatorIS2_EEEC1B8ue170006IDnNS_18__default_init_tagEEEOT_OT0_, symObjAddr: 0x3B1C, symBinAddr: 0x10000486C, symSize: 0x3C }
  - { offsetInCU: 0x1A66F, offset: 0x1A66F, size: 0x8, addend: 0x0, symName: __ZNSt3__117__compressed_pairIPP10menuVectorNS_9allocatorIS2_EEEC2B8ue170006IDnNS_18__default_init_tagEEEOT_OT0_, symObjAddr: 0x3B58, symBinAddr: 0x1000048A8, symSize: 0x40 }
  - { offsetInCU: 0x1A6C7, offset: 0x1A6C7, size: 0x8, addend: 0x0, symName: __ZNSt3__122__compressed_pair_elemIPP10menuVectorLi0ELb0EEC2B8ue170006IDnvEEOT_, symObjAddr: 0x3B98, symBinAddr: 0x1000048E8, symSize: 0x1C }
  - { offsetInCU: 0x1A709, offset: 0x1A709, size: 0x8, addend: 0x0, symName: __ZNSt3__122__compressed_pair_elemINS_9allocatorIP10menuVectorEELi1ELb1EEC2B8ue170006ENS_18__default_init_tagE, symObjAddr: 0x3BB4, symBinAddr: 0x100004904, symSize: 0x2C }
  - { offsetInCU: 0x1A73D, offset: 0x1A73D, size: 0x8, addend: 0x0, symName: __ZNSt3__19allocatorIP10menuVectorEC2B8ue170006Ev, symObjAddr: 0x3BE0, symBinAddr: 0x100004930, symSize: 0x2C }
  - { offsetInCU: 0x1A767, offset: 0x1A767, size: 0x8, addend: 0x0, symName: __ZNSt3__116__non_trivial_ifILb1ENS_9allocatorIP10menuVectorEEEC2B8ue170006Ev, symObjAddr: 0x3C0C, symBinAddr: 0x10000495C, symSize: 0x14 }
  - { offsetInCU: 0x1A791, offset: 0x1A791, size: 0x8, addend: 0x0, symName: __ZN14AccountStorageC2Ev, symObjAddr: 0x3C20, symBinAddr: 0x100004970, symSize: 0x30 }
  - { offsetInCU: 0x1A7BB, offset: 0x1A7BB, size: 0x8, addend: 0x0, symName: __ZNSt3__16vectorIP7AccountNS_9allocatorIS2_EEEC1B8ue170006Ev, symObjAddr: 0x3C50, symBinAddr: 0x1000049A0, symSize: 0x2C }
  - { offsetInCU: 0x1A7E5, offset: 0x1A7E5, size: 0x8, addend: 0x0, symName: __ZNSt3__16vectorIP7AccountNS_9allocatorIS2_EEEC2B8ue170006Ev, symObjAddr: 0x3C7C, symBinAddr: 0x1000049CC, symSize: 0x44 }
  - { offsetInCU: 0x1A80F, offset: 0x1A80F, size: 0x8, addend: 0x0, symName: __ZNSt3__117__compressed_pairIPP7AccountNS_9allocatorIS2_EEEC1B8ue170006IDnNS_18__default_init_tagEEEOT_OT0_, symObjAddr: 0x3CC0, symBinAddr: 0x100004A10, symSize: 0x3C }
  - { offsetInCU: 0x1A867, offset: 0x1A867, size: 0x8, addend: 0x0, symName: __ZNSt3__117__compressed_pairIPP7AccountNS_9allocatorIS2_EEEC2B8ue170006IDnNS_18__default_init_tagEEEOT_OT0_, symObjAddr: 0x3CFC, symBinAddr: 0x100004A4C, symSize: 0x40 }
  - { offsetInCU: 0x1A8BF, offset: 0x1A8BF, size: 0x8, addend: 0x0, symName: __ZNSt3__122__compressed_pair_elemIPP7AccountLi0ELb0EEC2B8ue170006IDnvEEOT_, symObjAddr: 0x3D3C, symBinAddr: 0x100004A8C, symSize: 0x1C }
  - { offsetInCU: 0x1A901, offset: 0x1A901, size: 0x8, addend: 0x0, symName: __ZNSt3__122__compressed_pair_elemINS_9allocatorIP7AccountEELi1ELb1EEC2B8ue170006ENS_18__default_init_tagE, symObjAddr: 0x3D58, symBinAddr: 0x100004AA8, symSize: 0x2C }
  - { offsetInCU: 0x1A935, offset: 0x1A935, size: 0x8, addend: 0x0, symName: __ZNSt3__19allocatorIP7AccountEC2B8ue170006Ev, symObjAddr: 0x3D84, symBinAddr: 0x100004AD4, symSize: 0x2C }
  - { offsetInCU: 0x1A95F, offset: 0x1A95F, size: 0x8, addend: 0x0, symName: __ZNSt3__116__non_trivial_ifILb1ENS_9allocatorIP7AccountEEEC2B8ue170006Ev, symObjAddr: 0x3DB0, symBinAddr: 0x100004B00, symSize: 0x14 }
  - { offsetInCU: 0x1A989, offset: 0x1A989, size: 0x8, addend: 0x0, symName: __ZN13PrintOnlyPageC2ENSt3__112basic_stringIcNS0_11char_traitsIcEENS0_9allocatorIcEEEE, symObjAddr: 0x3DC4, symBinAddr: 0x100004B14, symSize: 0x74 }
  - { offsetInCU: 0x1A9C2, offset: 0x1A9C2, size: 0x8, addend: 0x0, symName: __ZNSt3__16vectorIP7CommandNS_9allocatorIS2_EEEC1B8ue170006Ev, symObjAddr: 0x3E38, symBinAddr: 0x100004B88, symSize: 0x2C }
  - { offsetInCU: 0x1A9EC, offset: 0x1A9EC, size: 0x8, addend: 0x0, symName: __ZNSt3__16vectorIP7CommandNS_9allocatorIS2_EEED1B8ue170006Ev, symObjAddr: 0x3E64, symBinAddr: 0x100004BB4, symSize: 0x2C }
  - { offsetInCU: 0x1AA16, offset: 0x1AA16, size: 0x8, addend: 0x0, symName: __ZNSt3__16vectorIP7CommandNS_9allocatorIS2_EEEC2B8ue170006Ev, symObjAddr: 0x3E90, symBinAddr: 0x100004BE0, symSize: 0x44 }
  - { offsetInCU: 0x1AA40, offset: 0x1AA40, size: 0x8, addend: 0x0, symName: __ZNSt3__117__compressed_pairIPP7CommandNS_9allocatorIS2_EEEC1B8ue170006IDnNS_18__default_init_tagEEEOT_OT0_, symObjAddr: 0x3ED4, symBinAddr: 0x100004C24, symSize: 0x3C }
  - { offsetInCU: 0x1AA98, offset: 0x1AA98, size: 0x8, addend: 0x0, symName: __ZNSt3__117__compressed_pairIPP7CommandNS_9allocatorIS2_EEEC2B8ue170006IDnNS_18__default_init_tagEEEOT_OT0_, symObjAddr: 0x3F10, symBinAddr: 0x100004C60, symSize: 0x40 }
  - { offsetInCU: 0x1AAF0, offset: 0x1AAF0, size: 0x8, addend: 0x0, symName: __ZNSt3__122__compressed_pair_elemIPP7CommandLi0ELb0EEC2B8ue170006IDnvEEOT_, symObjAddr: 0x3F50, symBinAddr: 0x100004CA0, symSize: 0x1C }
  - { offsetInCU: 0x1AB32, offset: 0x1AB32, size: 0x8, addend: 0x0, symName: __ZNSt3__122__compressed_pair_elemINS_9allocatorIP7CommandEELi1ELb1EEC2B8ue170006ENS_18__default_init_tagE, symObjAddr: 0x3F6C, symBinAddr: 0x100004CBC, symSize: 0x2C }
  - { offsetInCU: 0x1AB66, offset: 0x1AB66, size: 0x8, addend: 0x0, symName: __ZNSt3__19allocatorIP7CommandEC2B8ue170006Ev, symObjAddr: 0x3F98, symBinAddr: 0x100004CE8, symSize: 0x2C }
  - { offsetInCU: 0x1AB90, offset: 0x1AB90, size: 0x8, addend: 0x0, symName: __ZNSt3__116__non_trivial_ifILb1ENS_9allocatorIP7CommandEEEC2B8ue170006Ev, symObjAddr: 0x3FC4, symBinAddr: 0x100004D14, symSize: 0x14 }
  - { offsetInCU: 0x1ABBA, offset: 0x1ABBA, size: 0x8, addend: 0x0, symName: __ZNSt3__16vectorIP7CommandNS_9allocatorIS2_EEED2B8ue170006Ev, symObjAddr: 0x3FD8, symBinAddr: 0x100004D28, symSize: 0x3C }
  - { offsetInCU: 0x1ABE4, offset: 0x1ABE4, size: 0x8, addend: 0x0, symName: __ZNSt3__16vectorIP7CommandNS_9allocatorIS2_EEE16__destroy_vectorC1B8ue170006ERS5_, symObjAddr: 0x4014, symBinAddr: 0x100004D64, symSize: 0x34 }
  - { offsetInCU: 0x1AC1D, offset: 0x1AC1D, size: 0x8, addend: 0x0, symName: __ZNSt3__16vectorIP7CommandNS_9allocatorIS2_EEE16__destroy_vectorclB8ue170006Ev, symObjAddr: 0x4048, symBinAddr: 0x100004D98, symSize: 0x90 }
  - { offsetInCU: 0x1AC43, offset: 0x1AC43, size: 0x8, addend: 0x0, symName: __ZNSt3__16vectorIP7CommandNS_9allocatorIS2_EEE16__destroy_vectorC2B8ue170006ERS5_, symObjAddr: 0x40D8, symBinAddr: 0x100004E28, symSize: 0x20 }
  - { offsetInCU: 0x1AC7C, offset: 0x1AC7C, size: 0x8, addend: 0x0, symName: __ZNSt3__16vectorIP7CommandNS_9allocatorIS2_EEE7__clearB8ue170006Ev, symObjAddr: 0x40F8, symBinAddr: 0x100004E48, symSize: 0x28 }
  - { offsetInCU: 0x1ACA2, offset: 0x1ACA2, size: 0x8, addend: 0x0, symName: __ZNKSt3__16vectorIP7CommandNS_9allocatorIS2_EEE17__annotate_deleteB8ue170006Ev, symObjAddr: 0x4120, symBinAddr: 0x100004E70, symSize: 0xB8 }
  - { offsetInCU: 0x1ACC8, offset: 0x1ACC8, size: 0x8, addend: 0x0, symName: __ZNSt3__116allocator_traitsINS_9allocatorIP7CommandEEE10deallocateB8ue170006ERS4_PS3_m, symObjAddr: 0x41D8, symBinAddr: 0x100004F28, symSize: 0x34 }
  - { offsetInCU: 0x1AD0A, offset: 0x1AD0A, size: 0x8, addend: 0x0, symName: __ZNSt3__16vectorIP7CommandNS_9allocatorIS2_EEE7__allocB8ue170006Ev, symObjAddr: 0x420C, symBinAddr: 0x100004F5C, symSize: 0x28 }
  - { offsetInCU: 0x1AD30, offset: 0x1AD30, size: 0x8, addend: 0x0, symName: __ZNKSt3__16vectorIP7CommandNS_9allocatorIS2_EEE8capacityB8ue170006Ev, symObjAddr: 0x4234, symBinAddr: 0x100004F84, symSize: 0x40 }
  - { offsetInCU: 0x1AD56, offset: 0x1AD56, size: 0x8, addend: 0x0, symName: __ZNSt3__16vectorIP7CommandNS_9allocatorIS2_EEE22__base_destruct_at_endB8ue170006EPS2_, symObjAddr: 0x4274, symBinAddr: 0x100004FC4, symSize: 0xA0 }
  - { offsetInCU: 0x1AD9A, offset: 0x1AD9A, size: 0x8, addend: 0x0, symName: __ZNSt3__116allocator_traitsINS_9allocatorIP7CommandEEE7destroyB8ue170006IS3_vEEvRS4_PT_, symObjAddr: 0x4314, symBinAddr: 0x100005064, symSize: 0x2C }
  - { offsetInCU: 0x1ADD7, offset: 0x1ADD7, size: 0x8, addend: 0x0, symName: __ZNSt3__19allocatorIP7CommandE7destroyB8ue170006EPS2_, symObjAddr: 0x4354, symBinAddr: 0x1000050A4, symSize: 0x14 }
  - { offsetInCU: 0x1AE0B, offset: 0x1AE0B, size: 0x8, addend: 0x0, symName: __ZNKSt3__16vectorIP7CommandNS_9allocatorIS2_EEE31__annotate_contiguous_containerB8ue170006EPKvS7_S7_S7_, symObjAddr: 0x4368, symBinAddr: 0x1000050B8, symSize: 0x20 }
  - { offsetInCU: 0x1AE5D, offset: 0x1AE5D, size: 0x8, addend: 0x0, symName: __ZNKSt3__16vectorIP7CommandNS_9allocatorIS2_EEE4dataB8ue170006Ev, symObjAddr: 0x4388, symBinAddr: 0x1000050D8, symSize: 0x28 }
  - { offsetInCU: 0x1AE83, offset: 0x1AE83, size: 0x8, addend: 0x0, symName: __ZNKSt3__16vectorIP7CommandNS_9allocatorIS2_EEE4sizeB8ue170006Ev, symObjAddr: 0x43B0, symBinAddr: 0x100005100, symSize: 0x28 }
  - { offsetInCU: 0x1AEA9, offset: 0x1AEA9, size: 0x8, addend: 0x0, symName: __ZNSt3__19allocatorIP7CommandE10deallocateB8ue170006EPS2_m, symObjAddr: 0x43D8, symBinAddr: 0x100005128, symSize: 0x70 }
  - { offsetInCU: 0x1AEEB, offset: 0x1AEEB, size: 0x8, addend: 0x0, symName: __ZNSt3__117__compressed_pairIPP7CommandNS_9allocatorIS2_EEE6secondB8ue170006Ev, symObjAddr: 0x44C4, symBinAddr: 0x100005214, symSize: 0x24 }
  - { offsetInCU: 0x1AF11, offset: 0x1AF11, size: 0x8, addend: 0x0, symName: __ZNSt3__122__compressed_pair_elemINS_9allocatorIP7CommandEELi1ELb1EE5__getB8ue170006Ev, symObjAddr: 0x44E8, symBinAddr: 0x100005238, symSize: 0x14 }
  - { offsetInCU: 0x1AF37, offset: 0x1AF37, size: 0x8, addend: 0x0, symName: __ZNKSt3__16vectorIP7CommandNS_9allocatorIS2_EEE9__end_capB8ue170006Ev, symObjAddr: 0x44FC, symBinAddr: 0x10000524C, symSize: 0x28 }
  - { offsetInCU: 0x1AF5D, offset: 0x1AF5D, size: 0x8, addend: 0x0, symName: __ZNKSt3__117__compressed_pairIPP7CommandNS_9allocatorIS2_EEE5firstB8ue170006Ev, symObjAddr: 0x4524, symBinAddr: 0x100005274, symSize: 0x24 }
  - { offsetInCU: 0x1AF83, offset: 0x1AF83, size: 0x8, addend: 0x0, symName: __ZNKSt3__122__compressed_pair_elemIPP7CommandLi0ELb0EE5__getB8ue170006Ev, symObjAddr: 0x4548, symBinAddr: 0x100005298, symSize: 0x14 }
  - { offsetInCU: 0x1AFA9, offset: 0x1AFA9, size: 0x8, addend: 0x0, symName: __ZN10SignInPageC2ER11FileHandlerR14AccountStorageR15AccountModifier, symObjAddr: 0x455C, symBinAddr: 0x1000052AC, symSize: 0x38 }
  - { offsetInCU: 0x1AFFD, offset: 0x1AFFD, size: 0x8, addend: 0x0, symName: __ZN10SignUpPageC2ER11FileHandlerR14AccountStorageR15AccountModifier, symObjAddr: 0x4594, symBinAddr: 0x1000052E4, symSize: 0x38 }
  - { offsetInCU: 0x1B051, offset: 0x1B051, size: 0x8, addend: 0x0, symName: __ZNSt3__16vectorIP7CommandNS_9allocatorIS2_EEE9push_backB8ue170006ERKS2_, symObjAddr: 0x45CC, symBinAddr: 0x10000531C, symSize: 0x6C }
  - { offsetInCU: 0x1B088, offset: 0x1B088, size: 0x8, addend: 0x0, symName: __ZNSt3__16vectorIP7CommandNS_9allocatorIS2_EEE9__end_capB8ue170006Ev, symObjAddr: 0x4638, symBinAddr: 0x100005388, symSize: 0x28 }
  - { offsetInCU: 0x1B0AE, offset: 0x1B0AE, size: 0x8, addend: 0x0, symName: __ZNSt3__16vectorIP7CommandNS_9allocatorIS2_EEE22__construct_one_at_endB8ue170006IJRKS2_EEEvDpOT_, symObjAddr: 0x4660, symBinAddr: 0x1000053B0, symSize: 0x98 }
  - { offsetInCU: 0x1B0FD, offset: 0x1B0FD, size: 0x8, addend: 0x0, symName: __ZNSt3__16vectorIP7CommandNS_9allocatorIS2_EEE21__push_back_slow_pathIRKS2_EEvOT_, symObjAddr: 0x46F8, symBinAddr: 0x100005448, symSize: 0xE0 }
  - { offsetInCU: 0x1B15B, offset: 0x1B15B, size: 0x8, addend: 0x0, symName: __ZNSt3__117__compressed_pairIPP7CommandNS_9allocatorIS2_EEE5firstB8ue170006Ev, symObjAddr: 0x47D8, symBinAddr: 0x100005528, symSize: 0x24 }
  - { offsetInCU: 0x1B181, offset: 0x1B181, size: 0x8, addend: 0x0, symName: __ZNSt3__122__compressed_pair_elemIPP7CommandLi0ELb0EE5__getB8ue170006Ev, symObjAddr: 0x47FC, symBinAddr: 0x10000554C, symSize: 0x14 }
  - { offsetInCU: 0x1B1C0, offset: 0x1B1C0, size: 0x8, addend: 0x0, symName: __ZNSt3__16vectorIP7CommandNS_9allocatorIS2_EEE21_ConstructTransactionC1B8ue170006ERS5_m, symObjAddr: 0x4810, symBinAddr: 0x100005560, symSize: 0x3C }
  - { offsetInCU: 0x1B208, offset: 0x1B208, size: 0x8, addend: 0x0, symName: __ZNSt3__116allocator_traitsINS_9allocatorIP7CommandEEE9constructB8ue170006IS3_JRKS3_EvEEvRS4_PT_DpOT0_, symObjAddr: 0x484C, symBinAddr: 0x10000559C, symSize: 0x34 }
  - { offsetInCU: 0x1B25F, offset: 0x1B25F, size: 0x8, addend: 0x0, symName: __ZNSt3__16vectorIP7CommandNS_9allocatorIS2_EEE21_ConstructTransactionD1B8ue170006Ev, symObjAddr: 0x4880, symBinAddr: 0x1000055D0, symSize: 0x2C }
  - { offsetInCU: 0x1B289, offset: 0x1B289, size: 0x8, addend: 0x0, symName: __ZNSt3__16vectorIP7CommandNS_9allocatorIS2_EEE21_ConstructTransactionC2B8ue170006ERS5_m, symObjAddr: 0x48AC, symBinAddr: 0x1000055FC, symSize: 0x44 }
  - { offsetInCU: 0x1B2D1, offset: 0x1B2D1, size: 0x8, addend: 0x0, symName: __ZNSt3__19allocatorIP7CommandE9constructB8ue170006IS2_JRKS2_EEEvPT_DpOT0_, symObjAddr: 0x48F0, symBinAddr: 0x100005640, symSize: 0x28 }
  - { offsetInCU: 0x1B327, offset: 0x1B327, size: 0x8, addend: 0x0, symName: __ZNSt3__16vectorIP7CommandNS_9allocatorIS2_EEE21_ConstructTransactionD2B8ue170006Ev, symObjAddr: 0x4918, symBinAddr: 0x100005668, symSize: 0x20 }
  - { offsetInCU: 0x1B351, offset: 0x1B351, size: 0x8, addend: 0x0, symName: __ZNKSt3__16vectorIP7CommandNS_9allocatorIS2_EEE11__recommendB8ue170006Em, symObjAddr: 0x4938, symBinAddr: 0x100005688, symSize: 0xB4 }
  - { offsetInCU: 0x1B3A6, offset: 0x1B3A6, size: 0x8, addend: 0x0, symName: __ZNSt3__114__split_bufferIP7CommandRNS_9allocatorIS2_EEEC1EmmS5_, symObjAddr: 0x49EC, symBinAddr: 0x10000573C, symSize: 0x44 }
  - { offsetInCU: 0x1B3FC, offset: 0x1B3FC, size: 0x8, addend: 0x0, symName: __ZNSt3__114__split_bufferIP7CommandRNS_9allocatorIS2_EEED1Ev, symObjAddr: 0x4B40, symBinAddr: 0x100005890, symSize: 0x2C }
  - { offsetInCU: 0x1B428, offset: 0x1B428, size: 0x8, addend: 0x0, symName: __ZNKSt3__16vectorIP7CommandNS_9allocatorIS2_EEE8max_sizeEv, symObjAddr: 0x4B6C, symBinAddr: 0x1000058BC, symSize: 0x74 }
  - { offsetInCU: 0x1B450, offset: 0x1B450, size: 0x8, addend: 0x0, symName: __ZNKSt3__16vectorIP7CommandNS_9allocatorIS2_EEE20__throw_length_errorB8ue170006Ev, symObjAddr: 0x4BE0, symBinAddr: 0x100005930, symSize: 0x1C }
  - { offsetInCU: 0x1B480, offset: 0x1B480, size: 0x8, addend: 0x0, symName: __ZNSt3__116allocator_traitsINS_9allocatorIP7CommandEEE8max_sizeB8ue170006IS4_vEEmRKS4_, symObjAddr: 0x4C54, symBinAddr: 0x1000059A4, symSize: 0x24 }
  - { offsetInCU: 0x1B4AE, offset: 0x1B4AE, size: 0x8, addend: 0x0, symName: __ZNKSt3__16vectorIP7CommandNS_9allocatorIS2_EEE7__allocB8ue170006Ev, symObjAddr: 0x4C78, symBinAddr: 0x1000059C8, symSize: 0x28 }
  - { offsetInCU: 0x1B4D4, offset: 0x1B4D4, size: 0x8, addend: 0x0, symName: __ZNSt3__114numeric_limitsIlE3maxB8ue170006Ev, symObjAddr: 0x4CA0, symBinAddr: 0x1000059F0, symSize: 0x14 }
  - { offsetInCU: 0x1B4FC, offset: 0x1B4FC, size: 0x8, addend: 0x0, symName: __ZNKSt3__16__lessIvvEclB8ue170006ImmEEbRKT_RKT0_, symObjAddr: 0x4D08, symBinAddr: 0x100005A58, symSize: 0x34 }
  - { offsetInCU: 0x1B550, offset: 0x1B550, size: 0x8, addend: 0x0, symName: __ZNKSt3__19allocatorIP7CommandE8max_sizeB8ue170006Ev, symObjAddr: 0x4D3C, symBinAddr: 0x100005A8C, symSize: 0x14 }
  - { offsetInCU: 0x1B576, offset: 0x1B576, size: 0x8, addend: 0x0, symName: __ZNKSt3__117__compressed_pairIPP7CommandNS_9allocatorIS2_EEE6secondB8ue170006Ev, symObjAddr: 0x4D50, symBinAddr: 0x100005AA0, symSize: 0x24 }
  - { offsetInCU: 0x1B59C, offset: 0x1B59C, size: 0x8, addend: 0x0, symName: __ZNKSt3__122__compressed_pair_elemINS_9allocatorIP7CommandEELi1ELb1EE5__getB8ue170006Ev, symObjAddr: 0x4D74, symBinAddr: 0x100005AC4, symSize: 0x14 }
  - { offsetInCU: 0x1B5C2, offset: 0x1B5C2, size: 0x8, addend: 0x0, symName: __ZNSt3__123__libcpp_numeric_limitsIlLb1EE3maxB8ue170006Ev, symObjAddr: 0x4D88, symBinAddr: 0x100005AD8, symSize: 0x8 }
  - { offsetInCU: 0x1B5D6, offset: 0x1B5D6, size: 0x8, addend: 0x0, symName: __ZNSt12length_errorC1B8ue170006EPKc, symObjAddr: 0x4DF4, symBinAddr: 0x100005B44, symSize: 0x34 }
  - { offsetInCU: 0x1B60E, offset: 0x1B60E, size: 0x8, addend: 0x0, symName: __ZNSt12length_errorC2B8ue170006EPKc, symObjAddr: 0x4E28, symBinAddr: 0x100005B78, symSize: 0x4C }
  - { offsetInCU: 0x1B646, offset: 0x1B646, size: 0x8, addend: 0x0, symName: __ZNSt3__114__split_bufferIP7CommandRNS_9allocatorIS2_EEEC2EmmS5_, symObjAddr: 0x4EC8, symBinAddr: 0x100005C18, symSize: 0xD4 }
  - { offsetInCU: 0x1B6B9, offset: 0x1B6B9, size: 0x8, addend: 0x0, symName: __ZNSt3__117__compressed_pairIPP7CommandRNS_9allocatorIS2_EEEC1B8ue170006IDnS6_EEOT_OT0_, symObjAddr: 0x4F9C, symBinAddr: 0x100005CEC, symSize: 0x3C }
  - { offsetInCU: 0x1B711, offset: 0x1B711, size: 0x8, addend: 0x0, symName: __ZNSt3__114__split_bufferIP7CommandRNS_9allocatorIS2_EEE7__allocB8ue170006Ev, symObjAddr: 0x5018, symBinAddr: 0x100005D68, symSize: 0x28 }
  - { offsetInCU: 0x1B737, offset: 0x1B737, size: 0x8, addend: 0x0, symName: __ZNSt3__114__split_bufferIP7CommandRNS_9allocatorIS2_EEE9__end_capB8ue170006Ev, symObjAddr: 0x5040, symBinAddr: 0x100005D90, symSize: 0x28 }
  - { offsetInCU: 0x1B75D, offset: 0x1B75D, size: 0x8, addend: 0x0, symName: __ZNSt3__117__compressed_pairIPP7CommandRNS_9allocatorIS2_EEEC2B8ue170006IDnS6_EEOT_OT0_, symObjAddr: 0x5068, symBinAddr: 0x100005DB8, symSize: 0x48 }
  - { offsetInCU: 0x1B7B5, offset: 0x1B7B5, size: 0x8, addend: 0x0, symName: __ZNSt3__122__compressed_pair_elemIRNS_9allocatorIP7CommandEELi1ELb0EEC2B8ue170006IS5_vEEOT_, symObjAddr: 0x50B0, symBinAddr: 0x100005E00, symSize: 0x20 }
  - { offsetInCU: 0x1B7F7, offset: 0x1B7F7, size: 0x8, addend: 0x0, symName: __ZNSt3__19allocatorIP7CommandE8allocateB8ue170006Em, symObjAddr: 0x50D0, symBinAddr: 0x100005E20, symSize: 0x84 }
  - { offsetInCU: 0x1B82B, offset: 0x1B82B, size: 0x8, addend: 0x0, symName: __ZNSt3__117__compressed_pairIPP7CommandRNS_9allocatorIS2_EEE6secondB8ue170006Ev, symObjAddr: 0x5154, symBinAddr: 0x100005EA4, symSize: 0x28 }
  - { offsetInCU: 0x1B851, offset: 0x1B851, size: 0x8, addend: 0x0, symName: __ZNSt3__122__compressed_pair_elemIRNS_9allocatorIP7CommandEELi1ELb0EE5__getB8ue170006Ev, symObjAddr: 0x517C, symBinAddr: 0x100005ECC, symSize: 0x18 }
  - { offsetInCU: 0x1B877, offset: 0x1B877, size: 0x8, addend: 0x0, symName: __ZNSt3__117__compressed_pairIPP7CommandRNS_9allocatorIS2_EEE5firstB8ue170006Ev, symObjAddr: 0x5194, symBinAddr: 0x100005EE4, symSize: 0x24 }
  - { offsetInCU: 0x1B89D, offset: 0x1B89D, size: 0x8, addend: 0x0, symName: __ZNSt3__116reverse_iteratorIPP7CommandEC1B8ue170006ES3_, symObjAddr: 0x52A0, symBinAddr: 0x100005FF0, symSize: 0x34 }
  - { offsetInCU: 0x1B8D5, offset: 0x1B8D5, size: 0x8, addend: 0x0, symName: __ZNKSt3__116reverse_iteratorIPP7CommandE4baseB8ue170006Ev, symObjAddr: 0x52D4, symBinAddr: 0x100006024, symSize: 0x18 }
  - { offsetInCU: 0x1B8FB, offset: 0x1B8FB, size: 0x8, addend: 0x0, symName: __ZNKSt3__16vectorIP7CommandNS_9allocatorIS2_EEE14__annotate_newB8ue170006Em, symObjAddr: 0x5328, symBinAddr: 0x100006078, symSize: 0xAC }
  - { offsetInCU: 0x1B930, offset: 0x1B930, size: 0x8, addend: 0x0, symName: __ZNKSt3__116reverse_iteratorIPP7CommandEdeB8ue170006Ev, symObjAddr: 0x546C, symBinAddr: 0x1000061BC, symSize: 0x28 }
  - { offsetInCU: 0x1B964, offset: 0x1B964, size: 0x8, addend: 0x0, symName: __ZNSt3__116reverse_iteratorIPP7CommandEppB8ue170006Ev, symObjAddr: 0x5494, symBinAddr: 0x1000061E4, symSize: 0x20 }
  - { offsetInCU: 0x1B98F, offset: 0x1B98F, size: 0x8, addend: 0x0, symName: __ZNSt3__119__to_address_helperINS_16reverse_iteratorIPP7CommandEEvE6__callB8ue170006ERKS5_, symObjAddr: 0x552C, symBinAddr: 0x10000627C, symSize: 0x4C }
  - { offsetInCU: 0x1B9B2, offset: 0x1B9B2, size: 0x8, addend: 0x0, symName: __ZNKSt3__116reverse_iteratorIPP7CommandEptB8ue170006Ev, symObjAddr: 0x5578, symBinAddr: 0x1000062C8, symSize: 0x24 }
  - { offsetInCU: 0x1B9FC, offset: 0x1B9FC, size: 0x8, addend: 0x0, symName: __ZNKSt3__111__move_loopINS_17_ClassicAlgPolicyEEclB8ue170006INS_16reverse_iteratorIPP7CommandEES8_S8_EENS_4pairIT_T1_EESA_T0_SB_, symObjAddr: 0x5814, symBinAddr: 0x100006564, symSize: 0xA0 }
  - { offsetInCU: 0x1BA6D, offset: 0x1BA6D, size: 0x8, addend: 0x0, symName: __ZNSt3__18_IterOpsINS_17_ClassicAlgPolicyEE11__iter_moveB8ue170006IRNS_16reverse_iteratorIPP7CommandEEEENS_9enable_ifIXsr12is_referenceIDTdeclsr3stdE7declvalIRT_EEEEE5valueEDTclsr3stdE4movedeclsr3stdE7declvalISC_EEEEE4typeEOSB_, symObjAddr: 0x5A14, symBinAddr: 0x100006764, symSize: 0x28 }
  - { offsetInCU: 0x1BA99, offset: 0x1BA99, size: 0x8, addend: 0x0, symName: __ZNSt3__18_IterOpsINS_17_ClassicAlgPolicyEE25__validate_iter_referenceB8ue170006IRNS_16reverse_iteratorIPP7CommandEEEEvv, symObjAddr: 0x5A3C, symBinAddr: 0x10000678C, symSize: 0x4 }
  - { offsetInCU: 0x1BAB7, offset: 0x1BAB7, size: 0x8, addend: 0x0, symName: __ZNSt3__118__unwrap_iter_implINS_16reverse_iteratorIPP7CommandEELb0EE8__unwrapB8ue170006ES5_, symObjAddr: 0x5A40, symBinAddr: 0x100006790, symSize: 0x24 }
  - { offsetInCU: 0x1BADA, offset: 0x1BADA, size: 0x8, addend: 0x0, symName: __ZNSt3__14pairINS_16reverse_iteratorIPP7CommandEES5_EC1B8ue170006ERKS5_S8_, symObjAddr: 0x5A64, symBinAddr: 0x1000067B4, symSize: 0x3C }
  - { offsetInCU: 0x1BB20, offset: 0x1BB20, size: 0x8, addend: 0x0, symName: __ZNSt3__14pairINS_16reverse_iteratorIPP7CommandEES5_EC2B8ue170006ERKS5_S8_, symObjAddr: 0x5AA0, symBinAddr: 0x1000067F0, symSize: 0x34 }
  - { offsetInCU: 0x1BB66, offset: 0x1BB66, size: 0x8, addend: 0x0, symName: __ZNSt3__118__unwrap_iter_implINS_16reverse_iteratorIPP7CommandEELb0EE8__rewrapB8ue170006ES5_S5_, symObjAddr: 0x5AD4, symBinAddr: 0x100006824, symSize: 0x2C }
  - { offsetInCU: 0x1BB93, offset: 0x1BB93, size: 0x8, addend: 0x0, symName: __ZNSt3__116reverse_iteratorIPP7CommandEC2B8ue170006ES3_, symObjAddr: 0x5B00, symBinAddr: 0x100006850, symSize: 0x28 }
  - { offsetInCU: 0x1BBCB, offset: 0x1BBCB, size: 0x8, addend: 0x0, symName: __ZNSt3__114__split_bufferIP7CommandRNS_9allocatorIS2_EEED2Ev, symObjAddr: 0x5B28, symBinAddr: 0x100006878, symSize: 0x80 }
  - { offsetInCU: 0x1BBF7, offset: 0x1BBF7, size: 0x8, addend: 0x0, symName: __ZNSt3__114__split_bufferIP7CommandRNS_9allocatorIS2_EEE5clearB8ue170006Ev, symObjAddr: 0x5BA8, symBinAddr: 0x1000068F8, symSize: 0x28 }
  - { offsetInCU: 0x1BC1D, offset: 0x1BC1D, size: 0x8, addend: 0x0, symName: __ZNKSt3__114__split_bufferIP7CommandRNS_9allocatorIS2_EEE8capacityB8ue170006Ev, symObjAddr: 0x5BD0, symBinAddr: 0x100006920, symSize: 0x40 }
  - { offsetInCU: 0x1BC43, offset: 0x1BC43, size: 0x8, addend: 0x0, symName: __ZNSt3__114__split_bufferIP7CommandRNS_9allocatorIS2_EEE17__destruct_at_endB8ue170006EPS2_, symObjAddr: 0x5C10, symBinAddr: 0x100006960, symSize: 0x2C }
  - { offsetInCU: 0x1BC77, offset: 0x1BC77, size: 0x8, addend: 0x0, symName: __ZNSt3__114__split_bufferIP7CommandRNS_9allocatorIS2_EEE17__destruct_at_endB8ue170006EPS2_NS_17integral_constantIbLb0EEE, symObjAddr: 0x5C3C, symBinAddr: 0x10000698C, symSize: 0x94 }
  - { offsetInCU: 0x1BCB7, offset: 0x1BCB7, size: 0x8, addend: 0x0, symName: __ZNKSt3__114__split_bufferIP7CommandRNS_9allocatorIS2_EEE9__end_capB8ue170006Ev, symObjAddr: 0x5CD0, symBinAddr: 0x100006A20, symSize: 0x28 }
  - { offsetInCU: 0x1BCDD, offset: 0x1BCDD, size: 0x8, addend: 0x0, symName: __ZNKSt3__117__compressed_pairIPP7CommandRNS_9allocatorIS2_EEE5firstB8ue170006Ev, symObjAddr: 0x5CF8, symBinAddr: 0x100006A48, symSize: 0x24 }
  - { offsetInCU: 0x1BD03, offset: 0x1BD03, size: 0x8, addend: 0x0, symName: __ZN10SearchPageC2ER11FileHandlerR11StoreVectorR13StoreModifier, symObjAddr: 0x5D1C, symBinAddr: 0x100006A6C, symSize: 0x38 }
  - { offsetInCU: 0x1BD5A, offset: 0x1BD5A, size: 0x8, addend: 0x0, symName: __ZN15AccountInfoPageC2ER11FileHandlerR14AccountStorageR15AccountModifier, symObjAddr: 0x5D54, symBinAddr: 0x100006AA4, symSize: 0x38 }
  - { offsetInCU: 0x1BDB1, offset: 0x1BDB1, size: 0x8, addend: 0x0, symName: __ZN20ModifyRestaurantPageC2ER11FileHandlerR11StoreVectorR13StoreModifier, symObjAddr: 0x5D8C, symBinAddr: 0x100006ADC, symSize: 0x38 }
  - { offsetInCU: 0x1BE08, offset: 0x1BE08, size: 0x8, addend: 0x0, symName: __ZN25CategoriesRestaurantsPageC2ENSt3__112basic_stringIcNS0_11char_traitsIcEENS0_9allocatorIcEEEE, symObjAddr: 0x5DC4, symBinAddr: 0x100006B14, symSize: 0x34 }
  - { offsetInCU: 0x1BE42, offset: 0x1BE42, size: 0x8, addend: 0x0, symName: __ZN13pageControlerC2ER14AccountStorage, symObjAddr: 0x5DF8, symBinAddr: 0x100006B48, symSize: 0x88 }
  - { offsetInCU: 0x1BE7A, offset: 0x1BE7A, size: 0x8, addend: 0x0, symName: __ZNSt3__16vectorIP13PrintOnlyPageNS_9allocatorIS2_EEEC1B8ue170006Ev, symObjAddr: 0x5E80, symBinAddr: 0x100006BD0, symSize: 0x2C }
  - { offsetInCU: 0x1BEA4, offset: 0x1BEA4, size: 0x8, addend: 0x0, symName: __ZNSt3__16vectorIP13PrintOnlyPageNS_9allocatorIS2_EEED1B8ue170006Ev, symObjAddr: 0x5EAC, symBinAddr: 0x100006BFC, symSize: 0x2C }
  - { offsetInCU: 0x1BECE, offset: 0x1BECE, size: 0x8, addend: 0x0, symName: __ZNSt3__16vectorIP13PrintOnlyPageNS_9allocatorIS2_EEEC2B8ue170006Ev, symObjAddr: 0x5ED8, symBinAddr: 0x100006C28, symSize: 0x44 }
  - { offsetInCU: 0x1BEF8, offset: 0x1BEF8, size: 0x8, addend: 0x0, symName: __ZNSt3__117__compressed_pairIPP13PrintOnlyPageNS_9allocatorIS2_EEEC1B8ue170006IDnNS_18__default_init_tagEEEOT_OT0_, symObjAddr: 0x5F1C, symBinAddr: 0x100006C6C, symSize: 0x3C }
  - { offsetInCU: 0x1BF50, offset: 0x1BF50, size: 0x8, addend: 0x0, symName: __ZNSt3__117__compressed_pairIPP13PrintOnlyPageNS_9allocatorIS2_EEEC2B8ue170006IDnNS_18__default_init_tagEEEOT_OT0_, symObjAddr: 0x5F58, symBinAddr: 0x100006CA8, symSize: 0x40 }
  - { offsetInCU: 0x1BFA8, offset: 0x1BFA8, size: 0x8, addend: 0x0, symName: __ZNSt3__122__compressed_pair_elemIPP13PrintOnlyPageLi0ELb0EEC2B8ue170006IDnvEEOT_, symObjAddr: 0x5F98, symBinAddr: 0x100006CE8, symSize: 0x1C }
  - { offsetInCU: 0x1BFEA, offset: 0x1BFEA, size: 0x8, addend: 0x0, symName: __ZNSt3__122__compressed_pair_elemINS_9allocatorIP13PrintOnlyPageEELi1ELb1EEC2B8ue170006ENS_18__default_init_tagE, symObjAddr: 0x5FB4, symBinAddr: 0x100006D04, symSize: 0x2C }
  - { offsetInCU: 0x1C01E, offset: 0x1C01E, size: 0x8, addend: 0x0, symName: __ZNSt3__19allocatorIP13PrintOnlyPageEC2B8ue170006Ev, symObjAddr: 0x5FE0, symBinAddr: 0x100006D30, symSize: 0x2C }
  - { offsetInCU: 0x1C048, offset: 0x1C048, size: 0x8, addend: 0x0, symName: __ZNSt3__116__non_trivial_ifILb1ENS_9allocatorIP13PrintOnlyPageEEEC2B8ue170006Ev, symObjAddr: 0x600C, symBinAddr: 0x100006D5C, symSize: 0x14 }
  - { offsetInCU: 0x1C072, offset: 0x1C072, size: 0x8, addend: 0x0, symName: __ZNSt3__16vectorIP13PrintOnlyPageNS_9allocatorIS2_EEED2B8ue170006Ev, symObjAddr: 0x6020, symBinAddr: 0x100006D70, symSize: 0x3C }
  - { offsetInCU: 0x1C09C, offset: 0x1C09C, size: 0x8, addend: 0x0, symName: __ZNSt3__16vectorIP13PrintOnlyPageNS_9allocatorIS2_EEE16__destroy_vectorC1B8ue170006ERS5_, symObjAddr: 0x605C, symBinAddr: 0x100006DAC, symSize: 0x34 }
  - { offsetInCU: 0x1C0D5, offset: 0x1C0D5, size: 0x8, addend: 0x0, symName: __ZNSt3__16vectorIP13PrintOnlyPageNS_9allocatorIS2_EEE16__destroy_vectorclB8ue170006Ev, symObjAddr: 0x6090, symBinAddr: 0x100006DE0, symSize: 0x90 }
  - { offsetInCU: 0x1C0FB, offset: 0x1C0FB, size: 0x8, addend: 0x0, symName: __ZNSt3__16vectorIP13PrintOnlyPageNS_9allocatorIS2_EEE16__destroy_vectorC2B8ue170006ERS5_, symObjAddr: 0x6120, symBinAddr: 0x100006E70, symSize: 0x20 }
  - { offsetInCU: 0x1C134, offset: 0x1C134, size: 0x8, addend: 0x0, symName: __ZNSt3__16vectorIP13PrintOnlyPageNS_9allocatorIS2_EEE7__clearB8ue170006Ev, symObjAddr: 0x6140, symBinAddr: 0x100006E90, symSize: 0x28 }
  - { offsetInCU: 0x1C15A, offset: 0x1C15A, size: 0x8, addend: 0x0, symName: __ZNKSt3__16vectorIP13PrintOnlyPageNS_9allocatorIS2_EEE17__annotate_deleteB8ue170006Ev, symObjAddr: 0x6168, symBinAddr: 0x100006EB8, symSize: 0xB8 }
  - { offsetInCU: 0x1C180, offset: 0x1C180, size: 0x8, addend: 0x0, symName: __ZNSt3__116allocator_traitsINS_9allocatorIP13PrintOnlyPageEEE10deallocateB8ue170006ERS4_PS3_m, symObjAddr: 0x6220, symBinAddr: 0x100006F70, symSize: 0x34 }
  - { offsetInCU: 0x1C1C2, offset: 0x1C1C2, size: 0x8, addend: 0x0, symName: __ZNSt3__16vectorIP13PrintOnlyPageNS_9allocatorIS2_EEE7__allocB8ue170006Ev, symObjAddr: 0x6254, symBinAddr: 0x100006FA4, symSize: 0x28 }
  - { offsetInCU: 0x1C1E8, offset: 0x1C1E8, size: 0x8, addend: 0x0, symName: __ZNKSt3__16vectorIP13PrintOnlyPageNS_9allocatorIS2_EEE8capacityB8ue170006Ev, symObjAddr: 0x627C, symBinAddr: 0x100006FCC, symSize: 0x40 }
  - { offsetInCU: 0x1C20E, offset: 0x1C20E, size: 0x8, addend: 0x0, symName: __ZNSt3__16vectorIP13PrintOnlyPageNS_9allocatorIS2_EEE22__base_destruct_at_endB8ue170006EPS2_, symObjAddr: 0x62BC, symBinAddr: 0x10000700C, symSize: 0xA0 }
  - { offsetInCU: 0x1C252, offset: 0x1C252, size: 0x8, addend: 0x0, symName: __ZNSt3__116allocator_traitsINS_9allocatorIP13PrintOnlyPageEEE7destroyB8ue170006IS3_vEEvRS4_PT_, symObjAddr: 0x635C, symBinAddr: 0x1000070AC, symSize: 0x2C }
  - { offsetInCU: 0x1C28F, offset: 0x1C28F, size: 0x8, addend: 0x0, symName: __ZNSt3__19allocatorIP13PrintOnlyPageE7destroyB8ue170006EPS2_, symObjAddr: 0x639C, symBinAddr: 0x1000070EC, symSize: 0x14 }
  - { offsetInCU: 0x1C2C3, offset: 0x1C2C3, size: 0x8, addend: 0x0, symName: __ZNKSt3__16vectorIP13PrintOnlyPageNS_9allocatorIS2_EEE31__annotate_contiguous_containerB8ue170006EPKvS7_S7_S7_, symObjAddr: 0x63B0, symBinAddr: 0x100007100, symSize: 0x20 }
  - { offsetInCU: 0x1C315, offset: 0x1C315, size: 0x8, addend: 0x0, symName: __ZNKSt3__16vectorIP13PrintOnlyPageNS_9allocatorIS2_EEE4dataB8ue170006Ev, symObjAddr: 0x63D0, symBinAddr: 0x100007120, symSize: 0x28 }
  - { offsetInCU: 0x1C33B, offset: 0x1C33B, size: 0x8, addend: 0x0, symName: __ZNKSt3__16vectorIP13PrintOnlyPageNS_9allocatorIS2_EEE4sizeB8ue170006Ev, symObjAddr: 0x63F8, symBinAddr: 0x100007148, symSize: 0x28 }
  - { offsetInCU: 0x1C361, offset: 0x1C361, size: 0x8, addend: 0x0, symName: __ZNSt3__19allocatorIP13PrintOnlyPageE10deallocateB8ue170006EPS2_m, symObjAddr: 0x6420, symBinAddr: 0x100007170, symSize: 0x70 }
  - { offsetInCU: 0x1C3A3, offset: 0x1C3A3, size: 0x8, addend: 0x0, symName: __ZNSt3__117__compressed_pairIPP13PrintOnlyPageNS_9allocatorIS2_EEE6secondB8ue170006Ev, symObjAddr: 0x6490, symBinAddr: 0x1000071E0, symSize: 0x24 }
  - { offsetInCU: 0x1C3C9, offset: 0x1C3C9, size: 0x8, addend: 0x0, symName: __ZNSt3__122__compressed_pair_elemINS_9allocatorIP13PrintOnlyPageEELi1ELb1EE5__getB8ue170006Ev, symObjAddr: 0x64B4, symBinAddr: 0x100007204, symSize: 0x14 }
  - { offsetInCU: 0x1C3EF, offset: 0x1C3EF, size: 0x8, addend: 0x0, symName: __ZNKSt3__16vectorIP13PrintOnlyPageNS_9allocatorIS2_EEE9__end_capB8ue170006Ev, symObjAddr: 0x64C8, symBinAddr: 0x100007218, symSize: 0x28 }
  - { offsetInCU: 0x1C415, offset: 0x1C415, size: 0x8, addend: 0x0, symName: __ZNKSt3__117__compressed_pairIPP13PrintOnlyPageNS_9allocatorIS2_EEE5firstB8ue170006Ev, symObjAddr: 0x64F0, symBinAddr: 0x100007240, symSize: 0x24 }
  - { offsetInCU: 0x1C43B, offset: 0x1C43B, size: 0x8, addend: 0x0, symName: __ZNKSt3__122__compressed_pair_elemIPP13PrintOnlyPageLi0ELb0EE5__getB8ue170006Ev, symObjAddr: 0x6514, symBinAddr: 0x100007264, symSize: 0x14 }
  - { offsetInCU: 0x1C461, offset: 0x1C461, size: 0x8, addend: 0x0, symName: __ZNSt3__16vectorIP13PrintOnlyPageNS_9allocatorIS2_EEE9push_backB8ue170006ERKS2_, symObjAddr: 0x6528, symBinAddr: 0x100007278, symSize: 0x6C }
  - { offsetInCU: 0x1C498, offset: 0x1C498, size: 0x8, addend: 0x0, symName: __ZNSt3__16vectorIP13PrintOnlyPageNS_9allocatorIS2_EEE9__end_capB8ue170006Ev, symObjAddr: 0x6594, symBinAddr: 0x1000072E4, symSize: 0x28 }
  - { offsetInCU: 0x1C4BE, offset: 0x1C4BE, size: 0x8, addend: 0x0, symName: __ZNSt3__16vectorIP13PrintOnlyPageNS_9allocatorIS2_EEE22__construct_one_at_endB8ue170006IJRKS2_EEEvDpOT_, symObjAddr: 0x65BC, symBinAddr: 0x10000730C, symSize: 0x98 }
  - { offsetInCU: 0x1C50D, offset: 0x1C50D, size: 0x8, addend: 0x0, symName: __ZNSt3__16vectorIP13PrintOnlyPageNS_9allocatorIS2_EEE21__push_back_slow_pathIRKS2_EEvOT_, symObjAddr: 0x6654, symBinAddr: 0x1000073A4, symSize: 0xE0 }
  - { offsetInCU: 0x1C56B, offset: 0x1C56B, size: 0x8, addend: 0x0, symName: __ZNSt3__117__compressed_pairIPP13PrintOnlyPageNS_9allocatorIS2_EEE5firstB8ue170006Ev, symObjAddr: 0x6734, symBinAddr: 0x100007484, symSize: 0x24 }
  - { offsetInCU: 0x1C591, offset: 0x1C591, size: 0x8, addend: 0x0, symName: __ZNSt3__122__compressed_pair_elemIPP13PrintOnlyPageLi0ELb0EE5__getB8ue170006Ev, symObjAddr: 0x6758, symBinAddr: 0x1000074A8, symSize: 0x14 }
  - { offsetInCU: 0x1C5D0, offset: 0x1C5D0, size: 0x8, addend: 0x0, symName: __ZNSt3__16vectorIP13PrintOnlyPageNS_9allocatorIS2_EEE21_ConstructTransactionC1B8ue170006ERS5_m, symObjAddr: 0x676C, symBinAddr: 0x1000074BC, symSize: 0x3C }
  - { offsetInCU: 0x1C618, offset: 0x1C618, size: 0x8, addend: 0x0, symName: __ZNSt3__116allocator_traitsINS_9allocatorIP13PrintOnlyPageEEE9constructB8ue170006IS3_JRKS3_EvEEvRS4_PT_DpOT0_, symObjAddr: 0x67A8, symBinAddr: 0x1000074F8, symSize: 0x34 }
  - { offsetInCU: 0x1C66F, offset: 0x1C66F, size: 0x8, addend: 0x0, symName: __ZNSt3__16vectorIP13PrintOnlyPageNS_9allocatorIS2_EEE21_ConstructTransactionD1B8ue170006Ev, symObjAddr: 0x67DC, symBinAddr: 0x10000752C, symSize: 0x2C }
  - { offsetInCU: 0x1C699, offset: 0x1C699, size: 0x8, addend: 0x0, symName: __ZNSt3__16vectorIP13PrintOnlyPageNS_9allocatorIS2_EEE21_ConstructTransactionC2B8ue170006ERS5_m, symObjAddr: 0x6808, symBinAddr: 0x100007558, symSize: 0x44 }
  - { offsetInCU: 0x1C6E1, offset: 0x1C6E1, size: 0x8, addend: 0x0, symName: __ZNSt3__19allocatorIP13PrintOnlyPageE9constructB8ue170006IS2_JRKS2_EEEvPT_DpOT0_, symObjAddr: 0x684C, symBinAddr: 0x10000759C, symSize: 0x28 }
  - { offsetInCU: 0x1C737, offset: 0x1C737, size: 0x8, addend: 0x0, symName: __ZNSt3__16vectorIP13PrintOnlyPageNS_9allocatorIS2_EEE21_ConstructTransactionD2B8ue170006Ev, symObjAddr: 0x6874, symBinAddr: 0x1000075C4, symSize: 0x20 }
  - { offsetInCU: 0x1C761, offset: 0x1C761, size: 0x8, addend: 0x0, symName: __ZNKSt3__16vectorIP13PrintOnlyPageNS_9allocatorIS2_EEE11__recommendB8ue170006Em, symObjAddr: 0x6894, symBinAddr: 0x1000075E4, symSize: 0xB4 }
  - { offsetInCU: 0x1C7B6, offset: 0x1C7B6, size: 0x8, addend: 0x0, symName: __ZNSt3__114__split_bufferIP13PrintOnlyPageRNS_9allocatorIS2_EEEC1EmmS5_, symObjAddr: 0x6948, symBinAddr: 0x100007698, symSize: 0x44 }
  - { offsetInCU: 0x1C80C, offset: 0x1C80C, size: 0x8, addend: 0x0, symName: __ZNSt3__114__split_bufferIP13PrintOnlyPageRNS_9allocatorIS2_EEED1Ev, symObjAddr: 0x6A9C, symBinAddr: 0x1000077EC, symSize: 0x2C }
  - { offsetInCU: 0x1C838, offset: 0x1C838, size: 0x8, addend: 0x0, symName: __ZNKSt3__16vectorIP13PrintOnlyPageNS_9allocatorIS2_EEE8max_sizeEv, symObjAddr: 0x6AC8, symBinAddr: 0x100007818, symSize: 0x74 }
  - { offsetInCU: 0x1C860, offset: 0x1C860, size: 0x8, addend: 0x0, symName: __ZNKSt3__16vectorIP13PrintOnlyPageNS_9allocatorIS2_EEE20__throw_length_errorB8ue170006Ev, symObjAddr: 0x6B3C, symBinAddr: 0x10000788C, symSize: 0x1C }
  - { offsetInCU: 0x1C890, offset: 0x1C890, size: 0x8, addend: 0x0, symName: __ZNSt3__116allocator_traitsINS_9allocatorIP13PrintOnlyPageEEE8max_sizeB8ue170006IS4_vEEmRKS4_, symObjAddr: 0x6B58, symBinAddr: 0x1000078A8, symSize: 0x24 }
  - { offsetInCU: 0x1C8BE, offset: 0x1C8BE, size: 0x8, addend: 0x0, symName: __ZNKSt3__16vectorIP13PrintOnlyPageNS_9allocatorIS2_EEE7__allocB8ue170006Ev, symObjAddr: 0x6B7C, symBinAddr: 0x1000078CC, symSize: 0x28 }
  - { offsetInCU: 0x1C8E4, offset: 0x1C8E4, size: 0x8, addend: 0x0, symName: __ZNKSt3__19allocatorIP13PrintOnlyPageE8max_sizeB8ue170006Ev, symObjAddr: 0x6BA4, symBinAddr: 0x1000078F4, symSize: 0x14 }
  - { offsetInCU: 0x1C90A, offset: 0x1C90A, size: 0x8, addend: 0x0, symName: __ZNKSt3__117__compressed_pairIPP13PrintOnlyPageNS_9allocatorIS2_EEE6secondB8ue170006Ev, symObjAddr: 0x6BB8, symBinAddr: 0x100007908, symSize: 0x24 }
  - { offsetInCU: 0x1C930, offset: 0x1C930, size: 0x8, addend: 0x0, symName: __ZNKSt3__122__compressed_pair_elemINS_9allocatorIP13PrintOnlyPageEELi1ELb1EE5__getB8ue170006Ev, symObjAddr: 0x6BDC, symBinAddr: 0x10000792C, symSize: 0x14 }
  - { offsetInCU: 0x1C956, offset: 0x1C956, size: 0x8, addend: 0x0, symName: __ZNSt3__114__split_bufferIP13PrintOnlyPageRNS_9allocatorIS2_EEEC2EmmS5_, symObjAddr: 0x6BF0, symBinAddr: 0x100007940, symSize: 0xD4 }
  - { offsetInCU: 0x1C9C9, offset: 0x1C9C9, size: 0x8, addend: 0x0, symName: __ZNSt3__117__compressed_pairIPP13PrintOnlyPageRNS_9allocatorIS2_EEEC1B8ue170006IDnS6_EEOT_OT0_, symObjAddr: 0x6CC4, symBinAddr: 0x100007A14, symSize: 0x3C }
  - { offsetInCU: 0x1CA21, offset: 0x1CA21, size: 0x8, addend: 0x0, symName: __ZNSt3__114__split_bufferIP13PrintOnlyPageRNS_9allocatorIS2_EEE7__allocB8ue170006Ev, symObjAddr: 0x6D40, symBinAddr: 0x100007A90, symSize: 0x28 }
  - { offsetInCU: 0x1CA47, offset: 0x1CA47, size: 0x8, addend: 0x0, symName: __ZNSt3__114__split_bufferIP13PrintOnlyPageRNS_9allocatorIS2_EEE9__end_capB8ue170006Ev, symObjAddr: 0x6D68, symBinAddr: 0x100007AB8, symSize: 0x28 }
  - { offsetInCU: 0x1CA6D, offset: 0x1CA6D, size: 0x8, addend: 0x0, symName: __ZNSt3__117__compressed_pairIPP13PrintOnlyPageRNS_9allocatorIS2_EEEC2B8ue170006IDnS6_EEOT_OT0_, symObjAddr: 0x6D90, symBinAddr: 0x100007AE0, symSize: 0x48 }
  - { offsetInCU: 0x1CAC5, offset: 0x1CAC5, size: 0x8, addend: 0x0, symName: __ZNSt3__122__compressed_pair_elemIRNS_9allocatorIP13PrintOnlyPageEELi1ELb0EEC2B8ue170006IS5_vEEOT_, symObjAddr: 0x6DD8, symBinAddr: 0x100007B28, symSize: 0x20 }
  - { offsetInCU: 0x1CB07, offset: 0x1CB07, size: 0x8, addend: 0x0, symName: __ZNSt3__19allocatorIP13PrintOnlyPageE8allocateB8ue170006Em, symObjAddr: 0x6DF8, symBinAddr: 0x100007B48, symSize: 0x84 }
  - { offsetInCU: 0x1CB3B, offset: 0x1CB3B, size: 0x8, addend: 0x0, symName: __ZNSt3__117__compressed_pairIPP13PrintOnlyPageRNS_9allocatorIS2_EEE6secondB8ue170006Ev, symObjAddr: 0x6E7C, symBinAddr: 0x100007BCC, symSize: 0x28 }
  - { offsetInCU: 0x1CB61, offset: 0x1CB61, size: 0x8, addend: 0x0, symName: __ZNSt3__122__compressed_pair_elemIRNS_9allocatorIP13PrintOnlyPageEELi1ELb0EE5__getB8ue170006Ev, symObjAddr: 0x6EA4, symBinAddr: 0x100007BF4, symSize: 0x18 }
  - { offsetInCU: 0x1CB87, offset: 0x1CB87, size: 0x8, addend: 0x0, symName: __ZNSt3__117__compressed_pairIPP13PrintOnlyPageRNS_9allocatorIS2_EEE5firstB8ue170006Ev, symObjAddr: 0x6EBC, symBinAddr: 0x100007C0C, symSize: 0x24 }
  - { offsetInCU: 0x1CBAD, offset: 0x1CBAD, size: 0x8, addend: 0x0, symName: __ZNSt3__116reverse_iteratorIPP13PrintOnlyPageEC1B8ue170006ES3_, symObjAddr: 0x6FC8, symBinAddr: 0x100007D18, symSize: 0x34 }
  - { offsetInCU: 0x1CBE5, offset: 0x1CBE5, size: 0x8, addend: 0x0, symName: __ZNKSt3__116reverse_iteratorIPP13PrintOnlyPageE4baseB8ue170006Ev, symObjAddr: 0x6FFC, symBinAddr: 0x100007D4C, symSize: 0x18 }
  - { offsetInCU: 0x1CC0B, offset: 0x1CC0B, size: 0x8, addend: 0x0, symName: __ZNKSt3__16vectorIP13PrintOnlyPageNS_9allocatorIS2_EEE14__annotate_newB8ue170006Em, symObjAddr: 0x7050, symBinAddr: 0x100007DA0, symSize: 0xAC }
  - { offsetInCU: 0x1CC40, offset: 0x1CC40, size: 0x8, addend: 0x0, symName: __ZNKSt3__116reverse_iteratorIPP13PrintOnlyPageEdeB8ue170006Ev, symObjAddr: 0x7194, symBinAddr: 0x100007EE4, symSize: 0x28 }
  - { offsetInCU: 0x1CC74, offset: 0x1CC74, size: 0x8, addend: 0x0, symName: __ZNSt3__116reverse_iteratorIPP13PrintOnlyPageEppB8ue170006Ev, symObjAddr: 0x71BC, symBinAddr: 0x100007F0C, symSize: 0x20 }
  - { offsetInCU: 0x1CC9F, offset: 0x1CC9F, size: 0x8, addend: 0x0, symName: __ZNSt3__119__to_address_helperINS_16reverse_iteratorIPP13PrintOnlyPageEEvE6__callB8ue170006ERKS5_, symObjAddr: 0x7254, symBinAddr: 0x100007FA4, symSize: 0x4C }
  - { offsetInCU: 0x1CCC2, offset: 0x1CCC2, size: 0x8, addend: 0x0, symName: __ZNKSt3__116reverse_iteratorIPP13PrintOnlyPageEptB8ue170006Ev, symObjAddr: 0x72A0, symBinAddr: 0x100007FF0, symSize: 0x24 }
  - { offsetInCU: 0x1CD02, offset: 0x1CD02, size: 0x8, addend: 0x0, symName: __ZNKSt3__111__move_loopINS_17_ClassicAlgPolicyEEclB8ue170006INS_16reverse_iteratorIPP13PrintOnlyPageEES8_S8_EENS_4pairIT_T1_EESA_T0_SB_, symObjAddr: 0x753C, symBinAddr: 0x10000828C, symSize: 0xA0 }
  - { offsetInCU: 0x1CD73, offset: 0x1CD73, size: 0x8, addend: 0x0, symName: __ZNSt3__18_IterOpsINS_17_ClassicAlgPolicyEE11__iter_moveB8ue170006IRNS_16reverse_iteratorIPP13PrintOnlyPageEEEENS_9enable_ifIXsr12is_referenceIDTdeclsr3stdE7declvalIRT_EEEEE5valueEDTclsr3stdE4movedeclsr3stdE7declvalISC_EEEEE4typeEOSB_, symObjAddr: 0x773C, symBinAddr: 0x10000848C, symSize: 0x28 }
  - { offsetInCU: 0x1CD9F, offset: 0x1CD9F, size: 0x8, addend: 0x0, symName: __ZNSt3__18_IterOpsINS_17_ClassicAlgPolicyEE25__validate_iter_referenceB8ue170006IRNS_16reverse_iteratorIPP13PrintOnlyPageEEEEvv, symObjAddr: 0x7764, symBinAddr: 0x1000084B4, symSize: 0x4 }
  - { offsetInCU: 0x1CDBD, offset: 0x1CDBD, size: 0x8, addend: 0x0, symName: __ZNSt3__118__unwrap_iter_implINS_16reverse_iteratorIPP13PrintOnlyPageEELb0EE8__unwrapB8ue170006ES5_, symObjAddr: 0x7768, symBinAddr: 0x1000084B8, symSize: 0x24 }
  - { offsetInCU: 0x1CDE0, offset: 0x1CDE0, size: 0x8, addend: 0x0, symName: __ZNSt3__14pairINS_16reverse_iteratorIPP13PrintOnlyPageEES5_EC1B8ue170006ERKS5_S8_, symObjAddr: 0x778C, symBinAddr: 0x1000084DC, symSize: 0x3C }
  - { offsetInCU: 0x1CE26, offset: 0x1CE26, size: 0x8, addend: 0x0, symName: __ZNSt3__14pairINS_16reverse_iteratorIPP13PrintOnlyPageEES5_EC2B8ue170006ERKS5_S8_, symObjAddr: 0x77C8, symBinAddr: 0x100008518, symSize: 0x34 }
  - { offsetInCU: 0x1CE6C, offset: 0x1CE6C, size: 0x8, addend: 0x0, symName: __ZNSt3__118__unwrap_iter_implINS_16reverse_iteratorIPP13PrintOnlyPageEELb0EE8__rewrapB8ue170006ES5_S5_, symObjAddr: 0x77FC, symBinAddr: 0x10000854C, symSize: 0x2C }
  - { offsetInCU: 0x1CE99, offset: 0x1CE99, size: 0x8, addend: 0x0, symName: __ZNSt3__116reverse_iteratorIPP13PrintOnlyPageEC2B8ue170006ES3_, symObjAddr: 0x7828, symBinAddr: 0x100008578, symSize: 0x28 }
  - { offsetInCU: 0x1CED1, offset: 0x1CED1, size: 0x8, addend: 0x0, symName: __ZNSt3__114__split_bufferIP13PrintOnlyPageRNS_9allocatorIS2_EEED2Ev, symObjAddr: 0x7850, symBinAddr: 0x1000085A0, symSize: 0x80 }
  - { offsetInCU: 0x1CEFD, offset: 0x1CEFD, size: 0x8, addend: 0x0, symName: __ZNSt3__114__split_bufferIP13PrintOnlyPageRNS_9allocatorIS2_EEE5clearB8ue170006Ev, symObjAddr: 0x78D0, symBinAddr: 0x100008620, symSize: 0x28 }
  - { offsetInCU: 0x1CF23, offset: 0x1CF23, size: 0x8, addend: 0x0, symName: __ZNKSt3__114__split_bufferIP13PrintOnlyPageRNS_9allocatorIS2_EEE8capacityB8ue170006Ev, symObjAddr: 0x78F8, symBinAddr: 0x100008648, symSize: 0x40 }
  - { offsetInCU: 0x1CF49, offset: 0x1CF49, size: 0x8, addend: 0x0, symName: __ZNSt3__114__split_bufferIP13PrintOnlyPageRNS_9allocatorIS2_EEE17__destruct_at_endB8ue170006EPS2_, symObjAddr: 0x7938, symBinAddr: 0x100008688, symSize: 0x2C }
  - { offsetInCU: 0x1CF7D, offset: 0x1CF7D, size: 0x8, addend: 0x0, symName: __ZNSt3__114__split_bufferIP13PrintOnlyPageRNS_9allocatorIS2_EEE17__destruct_at_endB8ue170006EPS2_NS_17integral_constantIbLb0EEE, symObjAddr: 0x7964, symBinAddr: 0x1000086B4, symSize: 0x94 }
  - { offsetInCU: 0x1CFBD, offset: 0x1CFBD, size: 0x8, addend: 0x0, symName: __ZNKSt3__114__split_bufferIP13PrintOnlyPageRNS_9allocatorIS2_EEE9__end_capB8ue170006Ev, symObjAddr: 0x79F8, symBinAddr: 0x100008748, symSize: 0x28 }
  - { offsetInCU: 0x1CFE3, offset: 0x1CFE3, size: 0x8, addend: 0x0, symName: __ZNKSt3__117__compressed_pairIPP13PrintOnlyPageRNS_9allocatorIS2_EEE5firstB8ue170006Ev, symObjAddr: 0x7A20, symBinAddr: 0x100008770, symSize: 0x24 }
  - { offsetInCU: 0x1D009, offset: 0x1D009, size: 0x8, addend: 0x0, symName: __ZN13pageControler9printPageEv, symObjAddr: 0x7A44, symBinAddr: 0x100008794, symSize: 0x34 }
  - { offsetInCU: 0x1D02F, offset: 0x1D02F, size: 0x8, addend: 0x0, symName: __ZN13pageControler11restorePageEv, symObjAddr: 0x7A78, symBinAddr: 0x1000087C8, symSize: 0x28 }
  - { offsetInCU: 0x1D055, offset: 0x1D055, size: 0x8, addend: 0x0, symName: __ZNSt3__16vectorIP13PrintOnlyPageNS_9allocatorIS2_EEEixB8ue170006Em, symObjAddr: 0x7AA0, symBinAddr: 0x1000087F0, symSize: 0x24 }
  - { offsetInCU: 0x1D08C, offset: 0x1D08C, size: 0x8, addend: 0x0, symName: __ZNSt3__16vectorIP13PrintOnlyPageNS_9allocatorIS2_EEE4backB8ue170006Ev, symObjAddr: 0x7AC4, symBinAddr: 0x100008814, symSize: 0x1C }
  - { offsetInCU: 0x1D0B2, offset: 0x1D0B2, size: 0x8, addend: 0x0, symName: __ZN13PrintOnlyPage4showEv, symObjAddr: 0x7AE0, symBinAddr: 0x100008830, symSize: 0x254 }
  - { offsetInCU: 0x1D0FA, offset: 0x1D0FA, size: 0x8, addend: 0x0, symName: __ZNSt3__16vectorIP7CommandNS_9allocatorIS2_EEEixB8ue170006Em, symObjAddr: 0x7D80, symBinAddr: 0x100008AD0, symSize: 0x24 }
  - { offsetInCU: 0x1D131, offset: 0x1D131, size: 0x8, addend: 0x0, symName: __ZNKSt3__112basic_stringIcNS_11char_traitsIcEENS_9allocatorIcEEE4sizeB8ue170006Ev, symObjAddr: 0x7DA4, symBinAddr: 0x100008AF4, symSize: 0x54 }
  - { offsetInCU: 0x1D157, offset: 0x1D157, size: 0x8, addend: 0x0, symName: __ZNKSt3__112basic_stringIcNS_11char_traitsIcEENS_9allocatorIcEEE15__get_long_sizeB8ue170006Ev, symObjAddr: 0x7DF8, symBinAddr: 0x100008B48, symSize: 0x28 }
  - { offsetInCU: 0x1D17D, offset: 0x1D17D, size: 0x8, addend: 0x0, symName: __ZNKSt3__112basic_stringIcNS_11char_traitsIcEENS_9allocatorIcEEE16__get_short_sizeB8ue170006Ev, symObjAddr: 0x7E20, symBinAddr: 0x100008B70, symSize: 0x34 }
  - { offsetInCU: 0x1D1A3, offset: 0x1D1A3, size: 0x8, addend: 0x0, symName: __ZNSt3__16vectorIP13PrintOnlyPageNS_9allocatorIS2_EEE8pop_backEv, symObjAddr: 0x7E54, symBinAddr: 0x100008BA4, symSize: 0x2C }
  - { offsetInCU: 0x1D1CB, offset: 0x1D1CB, size: 0x8, addend: 0x0, symName: __ZNSt3__16vectorIP13PrintOnlyPageNS_9allocatorIS2_EEE17__destruct_at_endB8ue170006EPS2_, symObjAddr: 0x7E80, symBinAddr: 0x100008BD0, symSize: 0x4C }
  - { offsetInCU: 0x1D20F, offset: 0x1D20F, size: 0x8, addend: 0x0, symName: __ZNKSt3__16vectorIP13PrintOnlyPageNS_9allocatorIS2_EEE17__annotate_shrinkB8ue170006Em, symObjAddr: 0x7ECC, symBinAddr: 0x100008C1C, symSize: 0xB4 }
  - { offsetInCU: 0x1D244, offset: 0x1D244, size: 0x8, addend: 0x0, symName: __ZN13pageControlerD2Ev, symObjAddr: 0x7F80, symBinAddr: 0x100008CD0, symSize: 0x6C }
  - { offsetInCU: 0x1D270, offset: 0x1D270, size: 0x8, addend: 0x0, symName: __ZN14FunctionalPageI25CategoriesRestaurantsPageED2Ev, symObjAddr: 0x7FEC, symBinAddr: 0x100008D3C, symSize: 0x40 }
  - { offsetInCU: 0x1D29C, offset: 0x1D29C, size: 0x8, addend: 0x0, symName: __ZN14FunctionalPageI25CategoriesRestaurantsPageE7executeEv, symObjAddr: 0x802C, symBinAddr: 0x100008D7C, symSize: 0x2C }
  - { offsetInCU: 0x1D2C2, offset: 0x1D2C2, size: 0x8, addend: 0x0, symName: __ZNK14FunctionalPageI25CategoriesRestaurantsPageE7getNameEv, symObjAddr: 0x8058, symBinAddr: 0x100008DA8, symSize: 0x3C }
  - { offsetInCU: 0x1D2E8, offset: 0x1D2E8, size: 0x8, addend: 0x0, symName: __ZN25CategoriesRestaurantsPage6actionEv, symObjAddr: 0x8094, symBinAddr: 0x100008DE4, symSize: 0x98 }
  - { offsetInCU: 0x1D30E, offset: 0x1D30E, size: 0x8, addend: 0x0, symName: __ZN13PrintOnlyPageD2Ev, symObjAddr: 0x812C, symBinAddr: 0x100008E7C, symSize: 0x68 }
  - { offsetInCU: 0x1D33A, offset: 0x1D33A, size: 0x8, addend: 0x0, symName: __ZN14FunctionalPageI20ModifyRestaurantPageED2Ev, symObjAddr: 0x8194, symBinAddr: 0x100008EE4, symSize: 0x40 }
  - { offsetInCU: 0x1D366, offset: 0x1D366, size: 0x8, addend: 0x0, symName: __ZN14FunctionalPageI20ModifyRestaurantPageE7executeEv, symObjAddr: 0x81D4, symBinAddr: 0x100008F24, symSize: 0x2C }
  - { offsetInCU: 0x1D38C, offset: 0x1D38C, size: 0x8, addend: 0x0, symName: __ZNK14FunctionalPageI20ModifyRestaurantPageE7getNameEv, symObjAddr: 0x8200, symBinAddr: 0x100008F50, symSize: 0x3C }
  - { offsetInCU: 0x1D3B2, offset: 0x1D3B2, size: 0x8, addend: 0x0, symName: __ZN20ModifyRestaurantPage6actionEv, symObjAddr: 0x823C, symBinAddr: 0x100008F8C, symSize: 0x984 }
  - { offsetInCU: 0x1D53B, offset: 0x1D53B, size: 0x8, addend: 0x0, symName: __ZNSt3__112basic_stringIcNS_11char_traitsIcEENS_9allocatorIcEEEaSB8ue170006EPKc, symObjAddr: 0x8BC0, symBinAddr: 0x100009910, symSize: 0x2C }
  - { offsetInCU: 0x1D570, offset: 0x1D570, size: 0x8, addend: 0x0, symName: __ZN11StoreVector14findStore2NameENSt3__112basic_stringIcNS0_11char_traitsIcEENS0_9allocatorIcEEEE, symObjAddr: 0x8F00, symBinAddr: 0x100009C50, symSize: 0x17C }
  - { offsetInCU: 0x1D5FF, offset: 0x1D5FF, size: 0x8, addend: 0x0, symName: __ZNSt3__16vectorIP10menuVectorNS_9allocatorIS2_EEEaSB8ue170006EOS5_, symObjAddr: 0x907C, symBinAddr: 0x100009DCC, symSize: 0x34 }
  - { offsetInCU: 0x1D636, offset: 0x1D636, size: 0x8, addend: 0x0, symName: __ZNSt3__16vectorIP10menuVectorNS_9allocatorIS2_EEED1B8ue170006Ev, symObjAddr: 0x90B0, symBinAddr: 0x100009E00, symSize: 0x2C }
  - { offsetInCU: 0x1D660, offset: 0x1D660, size: 0x8, addend: 0x0, symName: __ZNKSt3__16vectorIP10menuVectorNS_9allocatorIS2_EEE5emptyB8ue170006Ev, symObjAddr: 0x90DC, symBinAddr: 0x100009E2C, symSize: 0x28 }
  - { offsetInCU: 0x1D686, offset: 0x1D686, size: 0x8, addend: 0x0, symName: __ZNSt3__16vectorIP10menuVectorNS_9allocatorIS2_EEE5beginB8ue170006Ev, symObjAddr: 0x9104, symBinAddr: 0x100009E54, symSize: 0x30 }
  - { offsetInCU: 0x1D6AE, offset: 0x1D6AE, size: 0x8, addend: 0x0, symName: __ZNSt3__16vectorIP10menuVectorNS_9allocatorIS2_EEE3endB8ue170006Ev, symObjAddr: 0x9134, symBinAddr: 0x100009E84, symSize: 0x30 }
  - { offsetInCU: 0x1D6D6, offset: 0x1D6D6, size: 0x8, addend: 0x0, symName: __ZNKSt3__111__wrap_iterIPP10menuVectorEdeB8ue170006Ev, symObjAddr: 0x9198, symBinAddr: 0x100009EE8, symSize: 0x18 }
  - { offsetInCU: 0x1D6FC, offset: 0x1D6FC, size: 0x8, addend: 0x0, symName: __ZNSt3__111__wrap_iterIPP10menuVectorEppB8ue170006Ev, symObjAddr: 0x91B0, symBinAddr: 0x100009F00, symSize: 0x20 }
  - { offsetInCU: 0x1D722, offset: 0x1D722, size: 0x8, addend: 0x0, symName: __ZNSt3__16vectorIP10menuVectorNS_9allocatorIS2_EEEixB8ue170006Em, symObjAddr: 0x91D0, symBinAddr: 0x100009F20, symSize: 0x24 }
  - { offsetInCU: 0x1D759, offset: 0x1D759, size: 0x8, addend: 0x0, symName: __ZNSt3__16vectorIP4menuNS_9allocatorIS2_EEE5beginB8ue170006Ev, symObjAddr: 0x91F4, symBinAddr: 0x100009F44, symSize: 0x30 }
  - { offsetInCU: 0x1D781, offset: 0x1D781, size: 0x8, addend: 0x0, symName: __ZNSt3__16vectorIP4menuNS_9allocatorIS2_EEE3endB8ue170006Ev, symObjAddr: 0x9224, symBinAddr: 0x100009F74, symSize: 0x30 }
  - { offsetInCU: 0x1D7A9, offset: 0x1D7A9, size: 0x8, addend: 0x0, symName: __ZNKSt3__111__wrap_iterIPP4menuEdeB8ue170006Ev, symObjAddr: 0x9288, symBinAddr: 0x100009FD8, symSize: 0x18 }
  - { offsetInCU: 0x1D7CF, offset: 0x1D7CF, size: 0x8, addend: 0x0, symName: __ZNSt3__111__wrap_iterIPP4menuEppB8ue170006Ev, symObjAddr: 0x92A0, symBinAddr: 0x100009FF0, symSize: 0x20 }
  - { offsetInCU: 0x1D7F5, offset: 0x1D7F5, size: 0x8, addend: 0x0, symName: __ZNSt3__16vectorIP4menuNS_9allocatorIS2_EEED1B8ue170006Ev, symObjAddr: 0x92C0, symBinAddr: 0x10000A010, symSize: 0x2C }
  - { offsetInCU: 0x1D81F, offset: 0x1D81F, size: 0x8, addend: 0x0, symName: __ZNSt3__16vectorIP4menuNS_9allocatorIS2_EEEixB8ue170006Em, symObjAddr: 0x92EC, symBinAddr: 0x10000A03C, symSize: 0x24 }
  - { offsetInCU: 0x1D856, offset: 0x1D856, size: 0x8, addend: 0x0, symName: __ZN13StoreModifier10modifyDataER11FileHandlerR10menuVectorR4menu, symObjAddr: 0x9310, symBinAddr: 0x10000A060, symSize: 0xA00 }
  - { offsetInCU: 0x1D8FB, offset: 0x1D8FB, size: 0x8, addend: 0x0, symName: __ZNKSt3__113basic_istreamIcNS_11char_traitsIcEEE6sentrycvbB8ue170006Ev, symObjAddr: 0x9D10, symBinAddr: 0x10000AA60, symSize: 0x1C }
  - { offsetInCU: 0x1D921, offset: 0x1D921, size: 0x8, addend: 0x0, symName: __ZNSt3__112basic_stringIcNS_11char_traitsIcEENS_9allocatorIcEEE5clearB8ue170006Ev, symObjAddr: 0x9D2C, symBinAddr: 0x10000AA7C, symSize: 0x78 }
  - { offsetInCU: 0x1D949, offset: 0x1D949, size: 0x8, addend: 0x0, symName: __ZNKSt3__112basic_stringIcNS_11char_traitsIcEENS_9allocatorIcEEE8max_sizeB8ue170006Ev, symObjAddr: 0x9DA4, symBinAddr: 0x10000AAF4, symSize: 0xAC }
  - { offsetInCU: 0x1D99B, offset: 0x1D99B, size: 0x8, addend: 0x0, symName: __ZNSt3__115basic_streambufIcNS_11char_traitsIcEEE5sgetcB8ue170006Ev, symObjAddr: 0x9E50, symBinAddr: 0x10000ABA0, symSize: 0x70 }
  - { offsetInCU: 0x1D9C1, offset: 0x1D9C1, size: 0x8, addend: 0x0, symName: __ZNSt3__111char_traitsIcE12to_char_typeB8ue170006Ei, symObjAddr: 0x9EC0, symBinAddr: 0x10000AC10, symSize: 0x18 }
  - { offsetInCU: 0x1D9E4, offset: 0x1D9E4, size: 0x8, addend: 0x0, symName: __ZNKSt3__15ctypeIcE2isB8ue170006Ejc, symObjAddr: 0x9ED8, symBinAddr: 0x10000AC28, symSize: 0x7C }
  - { offsetInCU: 0x1DA28, offset: 0x1DA28, size: 0x8, addend: 0x0, symName: __ZNSt3__115basic_streambufIcNS_11char_traitsIcEEE6sbumpcB8ue170006Ev, symObjAddr: 0x9F54, symBinAddr: 0x10000ACA4, symSize: 0x78 }
  - { offsetInCU: 0x1DA4E, offset: 0x1DA4E, size: 0x8, addend: 0x0, symName: __ZNSt3__18ios_base18__setstate_nothrowB8ue170006Ej, symObjAddr: 0x9FCC, symBinAddr: 0x10000AD1C, symSize: 0x64 }
  - { offsetInCU: 0x1DA83, offset: 0x1DA83, size: 0x8, addend: 0x0, symName: __ZNKSt3__19basic_iosIcNS_11char_traitsIcEEE10exceptionsB8ue170006Ev, symObjAddr: 0xA030, symBinAddr: 0x10000AD80, symSize: 0x24 }
  - { offsetInCU: 0x1DAA9, offset: 0x1DAA9, size: 0x8, addend: 0x0, symName: __ZNSt3__111char_traitsIcE6assignB8ue170006ERcRKc, symObjAddr: 0xA054, symBinAddr: 0x10000ADA4, symSize: 0x24 }
  - { offsetInCU: 0x1DADA, offset: 0x1DADA, size: 0x8, addend: 0x0, symName: __ZNSt3__112basic_stringIcNS_11char_traitsIcEENS_9allocatorIcEEE18__get_long_pointerB8ue170006Ev, symObjAddr: 0xA078, symBinAddr: 0x10000ADC8, symSize: 0x28 }
  - { offsetInCU: 0x1DB00, offset: 0x1DB00, size: 0x8, addend: 0x0, symName: __ZNSt3__112basic_stringIcNS_11char_traitsIcEENS_9allocatorIcEEE19__get_short_pointerB8ue170006Ev, symObjAddr: 0xA0A0, symBinAddr: 0x10000ADF0, symSize: 0x28 }
  - { offsetInCU: 0x1DB26, offset: 0x1DB26, size: 0x8, addend: 0x0, symName: __ZNSt3__112basic_stringIcNS_11char_traitsIcEENS_9allocatorIcEEE16__set_short_sizeB8ue170006Em, symObjAddr: 0xA0C8, symBinAddr: 0x10000AE18, symSize: 0x78 }
  - { offsetInCU: 0x1DB5B, offset: 0x1DB5B, size: 0x8, addend: 0x0, symName: __ZNSt3__114pointer_traitsIPcE10pointer_toB8ue170006ERc, symObjAddr: 0xA140, symBinAddr: 0x10000AE90, symSize: 0x14 }
  - { offsetInCU: 0x1DB7E, offset: 0x1DB7E, size: 0x8, addend: 0x0, symName: __ZNKSt3__112basic_stringIcNS_11char_traitsIcEENS_9allocatorIcEEE7__allocB8ue170006Ev, symObjAddr: 0xA154, symBinAddr: 0x10000AEA4, symSize: 0x24 }
  - { offsetInCU: 0x1DBA4, offset: 0x1DBA4, size: 0x8, addend: 0x0, symName: __ZNSt3__114numeric_limitsImE3maxB8ue170006Ev, symObjAddr: 0xA178, symBinAddr: 0x10000AEC8, symSize: 0x14 }
  - { offsetInCU: 0x1DBB8, offset: 0x1DBB8, size: 0x8, addend: 0x0, symName: __ZNKSt3__117__compressed_pairINS_12basic_stringIcNS_11char_traitsIcEENS_9allocatorIcEEE5__repES5_E6secondB8ue170006Ev, symObjAddr: 0xA18C, symBinAddr: 0x10000AEDC, symSize: 0x24 }
  - { offsetInCU: 0x1DBDE, offset: 0x1DBDE, size: 0x8, addend: 0x0, symName: __ZNKSt3__122__compressed_pair_elemINS_9allocatorIcEELi1ELb1EE5__getB8ue170006Ev, symObjAddr: 0xA1B0, symBinAddr: 0x10000AF00, symSize: 0x14 }
  - { offsetInCU: 0x1DC04, offset: 0x1DC04, size: 0x8, addend: 0x0, symName: __ZNSt3__123__libcpp_numeric_limitsImLb1EE3maxB8ue170006Ev, symObjAddr: 0xA1C4, symBinAddr: 0x10000AF14, symSize: 0x8 }
  - { offsetInCU: 0x1DC18, offset: 0x1DC18, size: 0x8, addend: 0x0, symName: __ZNSt3__111char_traitsIcE11to_int_typeB8ue170006Ec, symObjAddr: 0xA1CC, symBinAddr: 0x10000AF1C, symSize: 0x14 }
  - { offsetInCU: 0x1DC3B, offset: 0x1DC3B, size: 0x8, addend: 0x0, symName: __Z7isasciii, symObjAddr: 0xA1E0, symBinAddr: 0x10000AF30, symSize: 0x24 }
  - { offsetInCU: 0x1DC68, offset: 0x1DC68, size: 0x8, addend: 0x0, symName: __ZNKSt3__18ios_base10exceptionsB8ue170006Ev, symObjAddr: 0xA204, symBinAddr: 0x10000AF54, symSize: 0x18 }
  - { offsetInCU: 0x1DC90, offset: 0x1DC90, size: 0x8, addend: 0x0, symName: __ZNKSt3__112basic_stringIcNS_11char_traitsIcEENS_9allocatorIcEEE7compareB8ue170006ERKS5_, symObjAddr: 0xA21C, symBinAddr: 0x10000AF6C, symSize: 0x4C }
  - { offsetInCU: 0x1DCC7, offset: 0x1DCC7, size: 0x8, addend: 0x0, symName: __ZNSt3__16vectorIP10menuVectorNS_9allocatorIS2_EEE9push_backB8ue170006ERKS2_, symObjAddr: 0xA268, symBinAddr: 0x10000AFB8, symSize: 0x6C }
  - { offsetInCU: 0x1DCFE, offset: 0x1DCFE, size: 0x8, addend: 0x0, symName: __ZNKSt3__112basic_stringIcNS_11char_traitsIcEENS_9allocatorIcEEE7compareINS_17basic_string_viewIcS2_EELi0EEEiRKT_, symObjAddr: 0xA2D4, symBinAddr: 0x10000B024, symSize: 0x140 }
  - { offsetInCU: 0x1DD81, offset: 0x1DD81, size: 0x8, addend: 0x0, symName: __ZNKSt3__112basic_stringIcNS_11char_traitsIcEENS_9allocatorIcEEEcvNS_17basic_string_viewIcS2_EEB8ue170006Ev, symObjAddr: 0xA414, symBinAddr: 0x10000B164, symSize: 0x50 }
  - { offsetInCU: 0x1DDA7, offset: 0x1DDA7, size: 0x8, addend: 0x0, symName: __ZNKSt3__117basic_string_viewIcNS_11char_traitsIcEEE4sizeB8ue170006Ev, symObjAddr: 0xA464, symBinAddr: 0x10000B1B4, symSize: 0x18 }
  - { offsetInCU: 0x1DDCD, offset: 0x1DDCD, size: 0x8, addend: 0x0, symName: __ZNSt3__111char_traitsIcE7compareB8ue170006EPKcS3_m, symObjAddr: 0xA47C, symBinAddr: 0x10000B1CC, symSize: 0x64 }
  - { offsetInCU: 0x1DE0C, offset: 0x1DE0C, size: 0x8, addend: 0x0, symName: __ZNKSt3__117basic_string_viewIcNS_11char_traitsIcEEE4dataB8ue170006Ev, symObjAddr: 0xA4E0, symBinAddr: 0x10000B230, symSize: 0x18 }
  - { offsetInCU: 0x1DE32, offset: 0x1DE32, size: 0x8, addend: 0x0, symName: __ZNSt3__117basic_string_viewIcNS_11char_traitsIcEEEC1B8ue170006EPKcm, symObjAddr: 0xA4F8, symBinAddr: 0x10000B248, symSize: 0x3C }
  - { offsetInCU: 0x1DE7A, offset: 0x1DE7A, size: 0x8, addend: 0x0, symName: __ZNSt3__117basic_string_viewIcNS_11char_traitsIcEEEC2B8ue170006EPKcm, symObjAddr: 0xA534, symBinAddr: 0x10000B284, symSize: 0x2C }
  - { offsetInCU: 0x1DEC2, offset: 0x1DEC2, size: 0x8, addend: 0x0, symName: __ZNSt3__16vectorIP10menuVectorNS_9allocatorIS2_EEE9__end_capB8ue170006Ev, symObjAddr: 0xA560, symBinAddr: 0x10000B2B0, symSize: 0x28 }
  - { offsetInCU: 0x1DEE8, offset: 0x1DEE8, size: 0x8, addend: 0x0, symName: __ZNSt3__16vectorIP10menuVectorNS_9allocatorIS2_EEE22__construct_one_at_endB8ue170006IJRKS2_EEEvDpOT_, symObjAddr: 0xA588, symBinAddr: 0x10000B2D8, symSize: 0x98 }
  - { offsetInCU: 0x1DF37, offset: 0x1DF37, size: 0x8, addend: 0x0, symName: __ZNSt3__16vectorIP10menuVectorNS_9allocatorIS2_EEE21__push_back_slow_pathIRKS2_EEvOT_, symObjAddr: 0xA620, symBinAddr: 0x10000B370, symSize: 0xE0 }
  - { offsetInCU: 0x1DF95, offset: 0x1DF95, size: 0x8, addend: 0x0, symName: __ZNSt3__117__compressed_pairIPP10menuVectorNS_9allocatorIS2_EEE5firstB8ue170006Ev, symObjAddr: 0xA700, symBinAddr: 0x10000B450, symSize: 0x24 }
  - { offsetInCU: 0x1DFBB, offset: 0x1DFBB, size: 0x8, addend: 0x0, symName: __ZNSt3__122__compressed_pair_elemIPP10menuVectorLi0ELb0EE5__getB8ue170006Ev, symObjAddr: 0xA724, symBinAddr: 0x10000B474, symSize: 0x14 }
  - { offsetInCU: 0x1DFFA, offset: 0x1DFFA, size: 0x8, addend: 0x0, symName: __ZNSt3__16vectorIP10menuVectorNS_9allocatorIS2_EEE21_ConstructTransactionC1B8ue170006ERS5_m, symObjAddr: 0xA738, symBinAddr: 0x10000B488, symSize: 0x3C }
  - { offsetInCU: 0x1E042, offset: 0x1E042, size: 0x8, addend: 0x0, symName: __ZNSt3__116allocator_traitsINS_9allocatorIP10menuVectorEEE9constructB8ue170006IS3_JRKS3_EvEEvRS4_PT_DpOT0_, symObjAddr: 0xA774, symBinAddr: 0x10000B4C4, symSize: 0x34 }
  - { offsetInCU: 0x1E099, offset: 0x1E099, size: 0x8, addend: 0x0, symName: __ZNSt3__16vectorIP10menuVectorNS_9allocatorIS2_EEE7__allocB8ue170006Ev, symObjAddr: 0xA7A8, symBinAddr: 0x10000B4F8, symSize: 0x28 }
  - { offsetInCU: 0x1E0BF, offset: 0x1E0BF, size: 0x8, addend: 0x0, symName: __ZNSt3__16vectorIP10menuVectorNS_9allocatorIS2_EEE21_ConstructTransactionD1B8ue170006Ev, symObjAddr: 0xA7E4, symBinAddr: 0x10000B534, symSize: 0x2C }
  - { offsetInCU: 0x1E0E9, offset: 0x1E0E9, size: 0x8, addend: 0x0, symName: __ZNSt3__16vectorIP10menuVectorNS_9allocatorIS2_EEE21_ConstructTransactionC2B8ue170006ERS5_m, symObjAddr: 0xA810, symBinAddr: 0x10000B560, symSize: 0x44 }
  - { offsetInCU: 0x1E131, offset: 0x1E131, size: 0x8, addend: 0x0, symName: __ZNSt3__19allocatorIP10menuVectorE9constructB8ue170006IS2_JRKS2_EEEvPT_DpOT0_, symObjAddr: 0xA854, symBinAddr: 0x10000B5A4, symSize: 0x28 }
  - { offsetInCU: 0x1E187, offset: 0x1E187, size: 0x8, addend: 0x0, symName: __ZNSt3__117__compressed_pairIPP10menuVectorNS_9allocatorIS2_EEE6secondB8ue170006Ev, symObjAddr: 0xA87C, symBinAddr: 0x10000B5CC, symSize: 0x24 }
  - { offsetInCU: 0x1E1AD, offset: 0x1E1AD, size: 0x8, addend: 0x0, symName: __ZNSt3__122__compressed_pair_elemINS_9allocatorIP10menuVectorEELi1ELb1EE5__getB8ue170006Ev, symObjAddr: 0xA8A0, symBinAddr: 0x10000B5F0, symSize: 0x14 }
  - { offsetInCU: 0x1E1D3, offset: 0x1E1D3, size: 0x8, addend: 0x0, symName: __ZNSt3__16vectorIP10menuVectorNS_9allocatorIS2_EEE21_ConstructTransactionD2B8ue170006Ev, symObjAddr: 0xA8B4, symBinAddr: 0x10000B604, symSize: 0x20 }
  - { offsetInCU: 0x1E1FD, offset: 0x1E1FD, size: 0x8, addend: 0x0, symName: __ZNKSt3__16vectorIP10menuVectorNS_9allocatorIS2_EEE11__recommendB8ue170006Em, symObjAddr: 0xA8D4, symBinAddr: 0x10000B624, symSize: 0xB4 }
  - { offsetInCU: 0x1E252, offset: 0x1E252, size: 0x8, addend: 0x0, symName: __ZNKSt3__16vectorIP10menuVectorNS_9allocatorIS2_EEE4sizeB8ue170006Ev, symObjAddr: 0xA988, symBinAddr: 0x10000B6D8, symSize: 0x28 }
  - { offsetInCU: 0x1E278, offset: 0x1E278, size: 0x8, addend: 0x0, symName: __ZNSt3__114__split_bufferIP10menuVectorRNS_9allocatorIS2_EEEC1EmmS5_, symObjAddr: 0xA9B0, symBinAddr: 0x10000B700, symSize: 0x44 }
  - { offsetInCU: 0x1E2CE, offset: 0x1E2CE, size: 0x8, addend: 0x0, symName: __ZNSt3__114__split_bufferIP10menuVectorRNS_9allocatorIS2_EEED1Ev, symObjAddr: 0xAB04, symBinAddr: 0x10000B854, symSize: 0x2C }
  - { offsetInCU: 0x1E2FA, offset: 0x1E2FA, size: 0x8, addend: 0x0, symName: __ZNKSt3__16vectorIP10menuVectorNS_9allocatorIS2_EEE8max_sizeEv, symObjAddr: 0xAB30, symBinAddr: 0x10000B880, symSize: 0x74 }
  - { offsetInCU: 0x1E322, offset: 0x1E322, size: 0x8, addend: 0x0, symName: __ZNKSt3__16vectorIP10menuVectorNS_9allocatorIS2_EEE20__throw_length_errorB8ue170006Ev, symObjAddr: 0xABA4, symBinAddr: 0x10000B8F4, symSize: 0x1C }
  - { offsetInCU: 0x1E348, offset: 0x1E348, size: 0x8, addend: 0x0, symName: __ZNKSt3__16vectorIP10menuVectorNS_9allocatorIS2_EEE8capacityB8ue170006Ev, symObjAddr: 0xABC0, symBinAddr: 0x10000B910, symSize: 0x40 }
  - { offsetInCU: 0x1E378, offset: 0x1E378, size: 0x8, addend: 0x0, symName: __ZNSt3__116allocator_traitsINS_9allocatorIP10menuVectorEEE8max_sizeB8ue170006IS4_vEEmRKS4_, symObjAddr: 0xAC00, symBinAddr: 0x10000B950, symSize: 0x24 }
  - { offsetInCU: 0x1E3A6, offset: 0x1E3A6, size: 0x8, addend: 0x0, symName: __ZNKSt3__16vectorIP10menuVectorNS_9allocatorIS2_EEE7__allocB8ue170006Ev, symObjAddr: 0xAC24, symBinAddr: 0x10000B974, symSize: 0x28 }
  - { offsetInCU: 0x1E3CC, offset: 0x1E3CC, size: 0x8, addend: 0x0, symName: __ZNKSt3__19allocatorIP10menuVectorE8max_sizeB8ue170006Ev, symObjAddr: 0xAC4C, symBinAddr: 0x10000B99C, symSize: 0x14 }
  - { offsetInCU: 0x1E3F2, offset: 0x1E3F2, size: 0x8, addend: 0x0, symName: __ZNKSt3__117__compressed_pairIPP10menuVectorNS_9allocatorIS2_EEE6secondB8ue170006Ev, symObjAddr: 0xAC60, symBinAddr: 0x10000B9B0, symSize: 0x24 }
  - { offsetInCU: 0x1E418, offset: 0x1E418, size: 0x8, addend: 0x0, symName: __ZNKSt3__122__compressed_pair_elemINS_9allocatorIP10menuVectorEELi1ELb1EE5__getB8ue170006Ev, symObjAddr: 0xAC84, symBinAddr: 0x10000B9D4, symSize: 0x14 }
  - { offsetInCU: 0x1E43E, offset: 0x1E43E, size: 0x8, addend: 0x0, symName: __ZNKSt3__16vectorIP10menuVectorNS_9allocatorIS2_EEE9__end_capB8ue170006Ev, symObjAddr: 0xAC98, symBinAddr: 0x10000B9E8, symSize: 0x28 }
  - { offsetInCU: 0x1E464, offset: 0x1E464, size: 0x8, addend: 0x0, symName: __ZNKSt3__117__compressed_pairIPP10menuVectorNS_9allocatorIS2_EEE5firstB8ue170006Ev, symObjAddr: 0xACC0, symBinAddr: 0x10000BA10, symSize: 0x24 }
  - { offsetInCU: 0x1E48A, offset: 0x1E48A, size: 0x8, addend: 0x0, symName: __ZNKSt3__122__compressed_pair_elemIPP10menuVectorLi0ELb0EE5__getB8ue170006Ev, symObjAddr: 0xACE4, symBinAddr: 0x10000BA34, symSize: 0x14 }
  - { offsetInCU: 0x1E4B0, offset: 0x1E4B0, size: 0x8, addend: 0x0, symName: __ZNSt3__114__split_bufferIP10menuVectorRNS_9allocatorIS2_EEEC2EmmS5_, symObjAddr: 0xACF8, symBinAddr: 0x10000BA48, symSize: 0xD4 }
  - { offsetInCU: 0x1E523, offset: 0x1E523, size: 0x8, addend: 0x0, symName: __ZNSt3__117__compressed_pairIPP10menuVectorRNS_9allocatorIS2_EEEC1B8ue170006IDnS6_EEOT_OT0_, symObjAddr: 0xADCC, symBinAddr: 0x10000BB1C, symSize: 0x3C }
  - { offsetInCU: 0x1E57B, offset: 0x1E57B, size: 0x8, addend: 0x0, symName: __ZNSt3__114__split_bufferIP10menuVectorRNS_9allocatorIS2_EEE7__allocB8ue170006Ev, symObjAddr: 0xAE48, symBinAddr: 0x10000BB98, symSize: 0x28 }
  - { offsetInCU: 0x1E5A1, offset: 0x1E5A1, size: 0x8, addend: 0x0, symName: __ZNSt3__114__split_bufferIP10menuVectorRNS_9allocatorIS2_EEE9__end_capB8ue170006Ev, symObjAddr: 0xAE70, symBinAddr: 0x10000BBC0, symSize: 0x28 }
  - { offsetInCU: 0x1E5C7, offset: 0x1E5C7, size: 0x8, addend: 0x0, symName: __ZNSt3__117__compressed_pairIPP10menuVectorRNS_9allocatorIS2_EEEC2B8ue170006IDnS6_EEOT_OT0_, symObjAddr: 0xAE98, symBinAddr: 0x10000BBE8, symSize: 0x48 }
  - { offsetInCU: 0x1E61F, offset: 0x1E61F, size: 0x8, addend: 0x0, symName: __ZNSt3__122__compressed_pair_elemIRNS_9allocatorIP10menuVectorEELi1ELb0EEC2B8ue170006IS5_vEEOT_, symObjAddr: 0xAEE0, symBinAddr: 0x10000BC30, symSize: 0x20 }
  - { offsetInCU: 0x1E661, offset: 0x1E661, size: 0x8, addend: 0x0, symName: __ZNSt3__19allocatorIP10menuVectorE8allocateB8ue170006Em, symObjAddr: 0xAF00, symBinAddr: 0x10000BC50, symSize: 0x84 }
  - { offsetInCU: 0x1E695, offset: 0x1E695, size: 0x8, addend: 0x0, symName: __ZNSt3__117__compressed_pairIPP10menuVectorRNS_9allocatorIS2_EEE6secondB8ue170006Ev, symObjAddr: 0xAF84, symBinAddr: 0x10000BCD4, symSize: 0x28 }
  - { offsetInCU: 0x1E6BB, offset: 0x1E6BB, size: 0x8, addend: 0x0, symName: __ZNSt3__122__compressed_pair_elemIRNS_9allocatorIP10menuVectorEELi1ELb0EE5__getB8ue170006Ev, symObjAddr: 0xAFAC, symBinAddr: 0x10000BCFC, symSize: 0x18 }
  - { offsetInCU: 0x1E6E1, offset: 0x1E6E1, size: 0x8, addend: 0x0, symName: __ZNSt3__117__compressed_pairIPP10menuVectorRNS_9allocatorIS2_EEE5firstB8ue170006Ev, symObjAddr: 0xAFC4, symBinAddr: 0x10000BD14, symSize: 0x24 }
  - { offsetInCU: 0x1E707, offset: 0x1E707, size: 0x8, addend: 0x0, symName: __ZNKSt3__16vectorIP10menuVectorNS_9allocatorIS2_EEE17__annotate_deleteB8ue170006Ev, symObjAddr: 0xAFE8, symBinAddr: 0x10000BD38, symSize: 0xB8 }
  - { offsetInCU: 0x1E72D, offset: 0x1E72D, size: 0x8, addend: 0x0, symName: __ZNSt3__116reverse_iteratorIPP10menuVectorEC1B8ue170006ES3_, symObjAddr: 0xB188, symBinAddr: 0x10000BED8, symSize: 0x34 }
  - { offsetInCU: 0x1E765, offset: 0x1E765, size: 0x8, addend: 0x0, symName: __ZNKSt3__116reverse_iteratorIPP10menuVectorE4baseB8ue170006Ev, symObjAddr: 0xB1BC, symBinAddr: 0x10000BF0C, symSize: 0x18 }
  - { offsetInCU: 0x1E78B, offset: 0x1E78B, size: 0x8, addend: 0x0, symName: __ZNKSt3__16vectorIP10menuVectorNS_9allocatorIS2_EEE14__annotate_newB8ue170006Em, symObjAddr: 0xB210, symBinAddr: 0x10000BF60, symSize: 0xAC }
  - { offsetInCU: 0x1E7C0, offset: 0x1E7C0, size: 0x8, addend: 0x0, symName: __ZNKSt3__16vectorIP10menuVectorNS_9allocatorIS2_EEE31__annotate_contiguous_containerB8ue170006EPKvS7_S7_S7_, symObjAddr: 0xB2BC, symBinAddr: 0x10000C00C, symSize: 0x20 }
  - { offsetInCU: 0x1E812, offset: 0x1E812, size: 0x8, addend: 0x0, symName: __ZNKSt3__16vectorIP10menuVectorNS_9allocatorIS2_EEE4dataB8ue170006Ev, symObjAddr: 0xB2DC, symBinAddr: 0x10000C02C, symSize: 0x28 }
  - { offsetInCU: 0x1E838, offset: 0x1E838, size: 0x8, addend: 0x0, symName: __ZNKSt3__116reverse_iteratorIPP10menuVectorEdeB8ue170006Ev, symObjAddr: 0xB39C, symBinAddr: 0x10000C0EC, symSize: 0x28 }
  - { offsetInCU: 0x1E86C, offset: 0x1E86C, size: 0x8, addend: 0x0, symName: __ZNSt3__116reverse_iteratorIPP10menuVectorEppB8ue170006Ev, symObjAddr: 0xB3C4, symBinAddr: 0x10000C114, symSize: 0x20 }
  - { offsetInCU: 0x1E897, offset: 0x1E897, size: 0x8, addend: 0x0, symName: __ZNSt3__119__to_address_helperINS_16reverse_iteratorIPP10menuVectorEEvE6__callB8ue170006ERKS5_, symObjAddr: 0xB45C, symBinAddr: 0x10000C1AC, symSize: 0x4C }
  - { offsetInCU: 0x1E8BA, offset: 0x1E8BA, size: 0x8, addend: 0x0, symName: __ZNKSt3__116reverse_iteratorIPP10menuVectorEptB8ue170006Ev, symObjAddr: 0xB4A8, symBinAddr: 0x10000C1F8, symSize: 0x24 }
  - { offsetInCU: 0x1E8FA, offset: 0x1E8FA, size: 0x8, addend: 0x0, symName: __ZNKSt3__111__move_loopINS_17_ClassicAlgPolicyEEclB8ue170006INS_16reverse_iteratorIPP10menuVectorEES8_S8_EENS_4pairIT_T1_EESA_T0_SB_, symObjAddr: 0xB744, symBinAddr: 0x10000C494, symSize: 0xA0 }
  - { offsetInCU: 0x1E965, offset: 0x1E965, size: 0x8, addend: 0x0, symName: __ZNSt3__18_IterOpsINS_17_ClassicAlgPolicyEE11__iter_moveB8ue170006IRNS_16reverse_iteratorIPP10menuVectorEEEENS_9enable_ifIXsr12is_referenceIDTdeclsr3stdE7declvalIRT_EEEEE5valueEDTclsr3stdE4movedeclsr3stdE7declvalISC_EEEEE4typeEOSB_, symObjAddr: 0xB944, symBinAddr: 0x10000C694, symSize: 0x28 }
  - { offsetInCU: 0x1E991, offset: 0x1E991, size: 0x8, addend: 0x0, symName: __ZNSt3__18_IterOpsINS_17_ClassicAlgPolicyEE25__validate_iter_referenceB8ue170006IRNS_16reverse_iteratorIPP10menuVectorEEEEvv, symObjAddr: 0xB96C, symBinAddr: 0x10000C6BC, symSize: 0x4 }
  - { offsetInCU: 0x1E9AF, offset: 0x1E9AF, size: 0x8, addend: 0x0, symName: __ZNSt3__118__unwrap_iter_implINS_16reverse_iteratorIPP10menuVectorEELb0EE8__unwrapB8ue170006ES5_, symObjAddr: 0xB970, symBinAddr: 0x10000C6C0, symSize: 0x24 }
  - { offsetInCU: 0x1E9D2, offset: 0x1E9D2, size: 0x8, addend: 0x0, symName: __ZNSt3__14pairINS_16reverse_iteratorIPP10menuVectorEES5_EC1B8ue170006ERKS5_S8_, symObjAddr: 0xB994, symBinAddr: 0x10000C6E4, symSize: 0x3C }
  - { offsetInCU: 0x1EA18, offset: 0x1EA18, size: 0x8, addend: 0x0, symName: __ZNSt3__14pairINS_16reverse_iteratorIPP10menuVectorEES5_EC2B8ue170006ERKS5_S8_, symObjAddr: 0xB9D0, symBinAddr: 0x10000C720, symSize: 0x34 }
  - { offsetInCU: 0x1EA5E, offset: 0x1EA5E, size: 0x8, addend: 0x0, symName: __ZNSt3__118__unwrap_iter_implINS_16reverse_iteratorIPP10menuVectorEELb0EE8__rewrapB8ue170006ES5_S5_, symObjAddr: 0xBA04, symBinAddr: 0x10000C754, symSize: 0x2C }
  - { offsetInCU: 0x1EA8B, offset: 0x1EA8B, size: 0x8, addend: 0x0, symName: __ZNSt3__116reverse_iteratorIPP10menuVectorEC2B8ue170006ES3_, symObjAddr: 0xBA30, symBinAddr: 0x10000C780, symSize: 0x28 }
  - { offsetInCU: 0x1EAC3, offset: 0x1EAC3, size: 0x8, addend: 0x0, symName: __ZNSt3__114__split_bufferIP10menuVectorRNS_9allocatorIS2_EEED2Ev, symObjAddr: 0xBA58, symBinAddr: 0x10000C7A8, symSize: 0x80 }
  - { offsetInCU: 0x1EAEF, offset: 0x1EAEF, size: 0x8, addend: 0x0, symName: __ZNSt3__114__split_bufferIP10menuVectorRNS_9allocatorIS2_EEE5clearB8ue170006Ev, symObjAddr: 0xBAD8, symBinAddr: 0x10000C828, symSize: 0x28 }
  - { offsetInCU: 0x1EB15, offset: 0x1EB15, size: 0x8, addend: 0x0, symName: __ZNSt3__116allocator_traitsINS_9allocatorIP10menuVectorEEE10deallocateB8ue170006ERS4_PS3_m, symObjAddr: 0xBB00, symBinAddr: 0x10000C850, symSize: 0x34 }
  - { offsetInCU: 0x1EB57, offset: 0x1EB57, size: 0x8, addend: 0x0, symName: __ZNKSt3__114__split_bufferIP10menuVectorRNS_9allocatorIS2_EEE8capacityB8ue170006Ev, symObjAddr: 0xBB34, symBinAddr: 0x10000C884, symSize: 0x40 }
  - { offsetInCU: 0x1EB7D, offset: 0x1EB7D, size: 0x8, addend: 0x0, symName: __ZNSt3__114__split_bufferIP10menuVectorRNS_9allocatorIS2_EEE17__destruct_at_endB8ue170006EPS2_, symObjAddr: 0xBB74, symBinAddr: 0x10000C8C4, symSize: 0x2C }
  - { offsetInCU: 0x1EBB1, offset: 0x1EBB1, size: 0x8, addend: 0x0, symName: __ZNSt3__114__split_bufferIP10menuVectorRNS_9allocatorIS2_EEE17__destruct_at_endB8ue170006EPS2_NS_17integral_constantIbLb0EEE, symObjAddr: 0xBBA0, symBinAddr: 0x10000C8F0, symSize: 0x94 }
  - { offsetInCU: 0x1EBF1, offset: 0x1EBF1, size: 0x8, addend: 0x0, symName: __ZNSt3__116allocator_traitsINS_9allocatorIP10menuVectorEEE7destroyB8ue170006IS3_vEEvRS4_PT_, symObjAddr: 0xBC34, symBinAddr: 0x10000C984, symSize: 0x2C }
  - { offsetInCU: 0x1EC2E, offset: 0x1EC2E, size: 0x8, addend: 0x0, symName: __ZNSt3__19allocatorIP10menuVectorE7destroyB8ue170006EPS2_, symObjAddr: 0xBC60, symBinAddr: 0x10000C9B0, symSize: 0x14 }
  - { offsetInCU: 0x1EC62, offset: 0x1EC62, size: 0x8, addend: 0x0, symName: __ZNSt3__19allocatorIP10menuVectorE10deallocateB8ue170006EPS2_m, symObjAddr: 0xBC74, symBinAddr: 0x10000C9C4, symSize: 0x70 }
  - { offsetInCU: 0x1ECA4, offset: 0x1ECA4, size: 0x8, addend: 0x0, symName: __ZNKSt3__114__split_bufferIP10menuVectorRNS_9allocatorIS2_EEE9__end_capB8ue170006Ev, symObjAddr: 0xBCE4, symBinAddr: 0x10000CA34, symSize: 0x28 }
  - { offsetInCU: 0x1ECCA, offset: 0x1ECCA, size: 0x8, addend: 0x0, symName: __ZNKSt3__117__compressed_pairIPP10menuVectorRNS_9allocatorIS2_EEE5firstB8ue170006Ev, symObjAddr: 0xBD0C, symBinAddr: 0x10000CA5C, symSize: 0x24 }
  - { offsetInCU: 0x1ECF0, offset: 0x1ECF0, size: 0x8, addend: 0x0, symName: __ZNSt3__16vectorIP10menuVectorNS_9allocatorIS2_EEE13__move_assignERS5_NS_17integral_constantIbLb1EEE, symObjAddr: 0xBD30, symBinAddr: 0x10000CA80, symSize: 0x94 }
  - { offsetInCU: 0x1ED32, offset: 0x1ED32, size: 0x8, addend: 0x0, symName: __ZNSt3__16vectorIP10menuVectorNS_9allocatorIS2_EEE13__vdeallocateEv, symObjAddr: 0xBDC4, symBinAddr: 0x10000CB14, symSize: 0x94 }
  - { offsetInCU: 0x1ED5A, offset: 0x1ED5A, size: 0x8, addend: 0x0, symName: __ZNSt3__16vectorIP10menuVectorNS_9allocatorIS2_EEE19__move_assign_allocB8ue170006ERS5_, symObjAddr: 0xBE58, symBinAddr: 0x10000CBA8, symSize: 0x2C }
  - { offsetInCU: 0x1ED8F, offset: 0x1ED8F, size: 0x8, addend: 0x0, symName: __ZNSt3__16vectorIP10menuVectorNS_9allocatorIS2_EEE5clearB8ue170006Ev, symObjAddr: 0xBE84, symBinAddr: 0x10000CBD4, symSize: 0x44 }
  - { offsetInCU: 0x1EDC4, offset: 0x1EDC4, size: 0x8, addend: 0x0, symName: __ZNSt3__16vectorIP10menuVectorNS_9allocatorIS2_EEE7__clearB8ue170006Ev, symObjAddr: 0xBEC8, symBinAddr: 0x10000CC18, symSize: 0x28 }
  - { offsetInCU: 0x1EDEA, offset: 0x1EDEA, size: 0x8, addend: 0x0, symName: __ZNKSt3__16vectorIP10menuVectorNS_9allocatorIS2_EEE17__annotate_shrinkB8ue170006Em, symObjAddr: 0xBEF0, symBinAddr: 0x10000CC40, symSize: 0xB4 }
  - { offsetInCU: 0x1EE1F, offset: 0x1EE1F, size: 0x8, addend: 0x0, symName: __ZNSt3__16vectorIP10menuVectorNS_9allocatorIS2_EEE22__base_destruct_at_endB8ue170006EPS2_, symObjAddr: 0xBFA4, symBinAddr: 0x10000CCF4, symSize: 0xA0 }
  - { offsetInCU: 0x1EE63, offset: 0x1EE63, size: 0x8, addend: 0x0, symName: __ZNSt3__16vectorIP10menuVectorNS_9allocatorIS2_EEE19__move_assign_allocB8ue170006ERS5_NS_17integral_constantIbLb1EEE, symObjAddr: 0xC044, symBinAddr: 0x10000CD94, symSize: 0x38 }
  - { offsetInCU: 0x1EEA3, offset: 0x1EEA3, size: 0x8, addend: 0x0, symName: __ZNSt3__16vectorIP10menuVectorNS_9allocatorIS2_EEED2B8ue170006Ev, symObjAddr: 0xC07C, symBinAddr: 0x10000CDCC, symSize: 0x3C }
  - { offsetInCU: 0x1EECD, offset: 0x1EECD, size: 0x8, addend: 0x0, symName: __ZNSt3__16vectorIP10menuVectorNS_9allocatorIS2_EEE16__destroy_vectorC1B8ue170006ERS5_, symObjAddr: 0xC0B8, symBinAddr: 0x10000CE08, symSize: 0x34 }
  - { offsetInCU: 0x1EF06, offset: 0x1EF06, size: 0x8, addend: 0x0, symName: __ZNSt3__16vectorIP10menuVectorNS_9allocatorIS2_EEE16__destroy_vectorclB8ue170006Ev, symObjAddr: 0xC0EC, symBinAddr: 0x10000CE3C, symSize: 0x90 }
  - { offsetInCU: 0x1EF2C, offset: 0x1EF2C, size: 0x8, addend: 0x0, symName: __ZNSt3__16vectorIP10menuVectorNS_9allocatorIS2_EEE16__destroy_vectorC2B8ue170006ERS5_, symObjAddr: 0xC17C, symBinAddr: 0x10000CECC, symSize: 0x20 }
  - { offsetInCU: 0x1EF65, offset: 0x1EF65, size: 0x8, addend: 0x0, symName: __ZNSt3__16vectorIP10menuVectorNS_9allocatorIS2_EEE11__make_iterB8ue170006EPS2_, symObjAddr: 0xC19C, symBinAddr: 0x10000CEEC, symSize: 0x30 }
  - { offsetInCU: 0x1EF9A, offset: 0x1EF9A, size: 0x8, addend: 0x0, symName: __ZNSt3__111__wrap_iterIPP10menuVectorEC1B8ue170006ES3_, symObjAddr: 0xC1CC, symBinAddr: 0x10000CF1C, symSize: 0x34 }
  - { offsetInCU: 0x1EFD2, offset: 0x1EFD2, size: 0x8, addend: 0x0, symName: __ZNSt3__111__wrap_iterIPP10menuVectorEC2B8ue170006ES3_, symObjAddr: 0xC200, symBinAddr: 0x10000CF50, symSize: 0x20 }
  - { offsetInCU: 0x1F00A, offset: 0x1F00A, size: 0x8, addend: 0x0, symName: __ZNKSt3__111__wrap_iterIPP10menuVectorE4baseB8ue170006Ev, symObjAddr: 0xC268, symBinAddr: 0x10000CFB8, symSize: 0x18 }
  - { offsetInCU: 0x1F030, offset: 0x1F030, size: 0x8, addend: 0x0, symName: __ZNSt3__16vectorIP4menuNS_9allocatorIS2_EEE11__make_iterB8ue170006EPS2_, symObjAddr: 0xC280, symBinAddr: 0x10000CFD0, symSize: 0x30 }
  - { offsetInCU: 0x1F065, offset: 0x1F065, size: 0x8, addend: 0x0, symName: __ZNSt3__111__wrap_iterIPP4menuEC1B8ue170006ES3_, symObjAddr: 0xC2B0, symBinAddr: 0x10000D000, symSize: 0x34 }
  - { offsetInCU: 0x1F09D, offset: 0x1F09D, size: 0x8, addend: 0x0, symName: __ZNSt3__111__wrap_iterIPP4menuEC2B8ue170006ES3_, symObjAddr: 0xC2E4, symBinAddr: 0x10000D034, symSize: 0x20 }
  - { offsetInCU: 0x1F0D5, offset: 0x1F0D5, size: 0x8, addend: 0x0, symName: __ZNKSt3__111__wrap_iterIPP4menuE4baseB8ue170006Ev, symObjAddr: 0xC34C, symBinAddr: 0x10000D09C, symSize: 0x18 }
  - { offsetInCU: 0x1F0FB, offset: 0x1F0FB, size: 0x8, addend: 0x0, symName: __ZNSt3__16vectorIP4menuNS_9allocatorIS2_EEED2B8ue170006Ev, symObjAddr: 0xC364, symBinAddr: 0x10000D0B4, symSize: 0x3C }
  - { offsetInCU: 0x1F125, offset: 0x1F125, size: 0x8, addend: 0x0, symName: __ZNSt3__16vectorIP4menuNS_9allocatorIS2_EEE16__destroy_vectorC1B8ue170006ERS5_, symObjAddr: 0xC3A0, symBinAddr: 0x10000D0F0, symSize: 0x34 }
  - { offsetInCU: 0x1F15E, offset: 0x1F15E, size: 0x8, addend: 0x0, symName: __ZNSt3__16vectorIP4menuNS_9allocatorIS2_EEE16__destroy_vectorclB8ue170006Ev, symObjAddr: 0xC3D4, symBinAddr: 0x10000D124, symSize: 0x90 }
  - { offsetInCU: 0x1F184, offset: 0x1F184, size: 0x8, addend: 0x0, symName: __ZNSt3__16vectorIP4menuNS_9allocatorIS2_EEE16__destroy_vectorC2B8ue170006ERS5_, symObjAddr: 0xC464, symBinAddr: 0x10000D1B4, symSize: 0x20 }
  - { offsetInCU: 0x1F1BD, offset: 0x1F1BD, size: 0x8, addend: 0x0, symName: __ZNSt3__16vectorIP4menuNS_9allocatorIS2_EEE7__clearB8ue170006Ev, symObjAddr: 0xC484, symBinAddr: 0x10000D1D4, symSize: 0x28 }
  - { offsetInCU: 0x1F1E3, offset: 0x1F1E3, size: 0x8, addend: 0x0, symName: __ZNKSt3__16vectorIP4menuNS_9allocatorIS2_EEE17__annotate_deleteB8ue170006Ev, symObjAddr: 0xC4AC, symBinAddr: 0x10000D1FC, symSize: 0xB8 }
  - { offsetInCU: 0x1F209, offset: 0x1F209, size: 0x8, addend: 0x0, symName: __ZNSt3__116allocator_traitsINS_9allocatorIP4menuEEE10deallocateB8ue170006ERS4_PS3_m, symObjAddr: 0xC564, symBinAddr: 0x10000D2B4, symSize: 0x34 }
  - { offsetInCU: 0x1F24B, offset: 0x1F24B, size: 0x8, addend: 0x0, symName: __ZNSt3__16vectorIP4menuNS_9allocatorIS2_EEE7__allocB8ue170006Ev, symObjAddr: 0xC598, symBinAddr: 0x10000D2E8, symSize: 0x28 }
  - { offsetInCU: 0x1F271, offset: 0x1F271, size: 0x8, addend: 0x0, symName: __ZNKSt3__16vectorIP4menuNS_9allocatorIS2_EEE8capacityB8ue170006Ev, symObjAddr: 0xC5C0, symBinAddr: 0x10000D310, symSize: 0x40 }
  - { offsetInCU: 0x1F297, offset: 0x1F297, size: 0x8, addend: 0x0, symName: __ZNSt3__16vectorIP4menuNS_9allocatorIS2_EEE22__base_destruct_at_endB8ue170006EPS2_, symObjAddr: 0xC600, symBinAddr: 0x10000D350, symSize: 0xA0 }
  - { offsetInCU: 0x1F2DB, offset: 0x1F2DB, size: 0x8, addend: 0x0, symName: __ZNSt3__116allocator_traitsINS_9allocatorIP4menuEEE7destroyB8ue170006IS3_vEEvRS4_PT_, symObjAddr: 0xC6A0, symBinAddr: 0x10000D3F0, symSize: 0x2C }
  - { offsetInCU: 0x1F318, offset: 0x1F318, size: 0x8, addend: 0x0, symName: __ZNSt3__19allocatorIP4menuE7destroyB8ue170006EPS2_, symObjAddr: 0xC6E0, symBinAddr: 0x10000D430, symSize: 0x14 }
  - { offsetInCU: 0x1F34C, offset: 0x1F34C, size: 0x8, addend: 0x0, symName: __ZNKSt3__16vectorIP4menuNS_9allocatorIS2_EEE31__annotate_contiguous_containerB8ue170006EPKvS7_S7_S7_, symObjAddr: 0xC6F4, symBinAddr: 0x10000D444, symSize: 0x20 }
  - { offsetInCU: 0x1F39E, offset: 0x1F39E, size: 0x8, addend: 0x0, symName: __ZNKSt3__16vectorIP4menuNS_9allocatorIS2_EEE4dataB8ue170006Ev, symObjAddr: 0xC714, symBinAddr: 0x10000D464, symSize: 0x28 }
  - { offsetInCU: 0x1F3C4, offset: 0x1F3C4, size: 0x8, addend: 0x0, symName: __ZNKSt3__16vectorIP4menuNS_9allocatorIS2_EEE4sizeB8ue170006Ev, symObjAddr: 0xC73C, symBinAddr: 0x10000D48C, symSize: 0x28 }
  - { offsetInCU: 0x1F3EA, offset: 0x1F3EA, size: 0x8, addend: 0x0, symName: __ZNSt3__19allocatorIP4menuE10deallocateB8ue170006EPS2_m, symObjAddr: 0xC764, symBinAddr: 0x10000D4B4, symSize: 0x70 }
  - { offsetInCU: 0x1F42C, offset: 0x1F42C, size: 0x8, addend: 0x0, symName: __ZNSt3__117__compressed_pairIPP4menuNS_9allocatorIS2_EEE6secondB8ue170006Ev, symObjAddr: 0xC7D4, symBinAddr: 0x10000D524, symSize: 0x24 }
  - { offsetInCU: 0x1F452, offset: 0x1F452, size: 0x8, addend: 0x0, symName: __ZNSt3__122__compressed_pair_elemINS_9allocatorIP4menuEELi1ELb1EE5__getB8ue170006Ev, symObjAddr: 0xC7F8, symBinAddr: 0x10000D548, symSize: 0x14 }
  - { offsetInCU: 0x1F478, offset: 0x1F478, size: 0x8, addend: 0x0, symName: __ZNKSt3__16vectorIP4menuNS_9allocatorIS2_EEE9__end_capB8ue170006Ev, symObjAddr: 0xC80C, symBinAddr: 0x10000D55C, symSize: 0x28 }
  - { offsetInCU: 0x1F49E, offset: 0x1F49E, size: 0x8, addend: 0x0, symName: __ZNKSt3__117__compressed_pairIPP4menuNS_9allocatorIS2_EEE5firstB8ue170006Ev, symObjAddr: 0xC834, symBinAddr: 0x10000D584, symSize: 0x24 }
  - { offsetInCU: 0x1F4C4, offset: 0x1F4C4, size: 0x8, addend: 0x0, symName: __ZNKSt3__122__compressed_pair_elemIPP4menuLi0ELb0EE5__getB8ue170006Ev, symObjAddr: 0xC858, symBinAddr: 0x10000D5A8, symSize: 0x14 }
  - { offsetInCU: 0x1F4EA, offset: 0x1F4EA, size: 0x8, addend: 0x0, symName: __ZN11FileHandler9moveFrontEv, symObjAddr: 0xC86C, symBinAddr: 0x10000D5BC, symSize: 0x54 }
  - { offsetInCU: 0x1F510, offset: 0x1F510, size: 0x8, addend: 0x0, symName: __ZN11FileHandler8readLineEv, symObjAddr: 0xC8C0, symBinAddr: 0x10000D610, symSize: 0x178 }
  - { offsetInCU: 0x1F544, offset: 0x1F544, size: 0x8, addend: 0x0, symName: __ZNK11FileHandler7getLineEv, symObjAddr: 0xCAF8, symBinAddr: 0x10000D848, symSize: 0x3C }
  - { offsetInCU: 0x1F56A, offset: 0x1F56A, size: 0x8, addend: 0x0, symName: __ZNKSt3__112basic_stringIcNS_11char_traitsIcEENS_9allocatorIcEEE4findB8ue170006ERKS5_m, symObjAddr: 0xCB34, symBinAddr: 0x10000D884, symSize: 0x78 }
  - { offsetInCU: 0x1F5B0, offset: 0x1F5B0, size: 0x8, addend: 0x0, symName: __ZN11FileHandler10writeTokenENSt3__112basic_stringIcNS0_11char_traitsIcEENS0_9allocatorIcEEEE, symObjAddr: 0xCBAC, symBinAddr: 0x10000D8FC, symSize: 0x30 }
  - { offsetInCU: 0x1F5E5, offset: 0x1F5E5, size: 0x8, addend: 0x0, symName: __ZN11FileHandler9readTokenEc, symObjAddr: 0xCCF8, symBinAddr: 0x10000DA48, symSize: 0x88 }
  - { offsetInCU: 0x1F619, offset: 0x1F619, size: 0x8, addend: 0x0, symName: __ZNK11FileHandler8getTokenEv, symObjAddr: 0xCD80, symBinAddr: 0x10000DAD0, symSize: 0x3C }
  - { offsetInCU: 0x1F63F, offset: 0x1F63F, size: 0x8, addend: 0x0, symName: __ZNKSt3__112basic_stringIcNS_11char_traitsIcEENS_9allocatorIcEEE6substrB8ue170006Emm, symObjAddr: 0xCEF0, symBinAddr: 0x10000DC40, symSize: 0x68 }
  - { offsetInCU: 0x1F683, offset: 0x1F683, size: 0x8, addend: 0x0, symName: __ZNSt3__112basic_stringIcNS_11char_traitsIcEENS_9allocatorIcEEEpLB8ue170006EPKc, symObjAddr: 0xCF58, symBinAddr: 0x10000DCA8, symSize: 0x2C }
  - { offsetInCU: 0x1F6B8, offset: 0x1F6B8, size: 0x8, addend: 0x0, symName: __ZNKSt3__19basic_iosIcNS_11char_traitsIcEEEntB8ue170006Ev, symObjAddr: 0xCFE0, symBinAddr: 0x10000DD30, symSize: 0x28 }
  - { offsetInCU: 0x1F6DE, offset: 0x1F6DE, size: 0x8, addend: 0x0, symName: __ZNSt12out_of_rangeC1B8ue170006EPKc, symObjAddr: 0xD008, symBinAddr: 0x10000DD58, symSize: 0x34 }
  - { offsetInCU: 0x1F716, offset: 0x1F716, size: 0x8, addend: 0x0, symName: __ZNSt3__118basic_stringstreamIcNS_11char_traitsIcEENS_9allocatorIcEEE3strB8ue170006ERKNS_12basic_stringIcS2_S4_EE, symObjAddr: 0xD03C, symBinAddr: 0x10000DD8C, symSize: 0x30 }
  - { offsetInCU: 0x1F74B, offset: 0x1F74B, size: 0x8, addend: 0x0, symName: __ZNSt9exceptionC1B8ue170006ERKS_, symObjAddr: 0xD06C, symBinAddr: 0x10000DDBC, symSize: 0x34 }
  - { offsetInCU: 0x1F77F, offset: 0x1F77F, size: 0x8, addend: 0x0, symName: __ZNSt3__111char_traitsIcE2eqEcc, symObjAddr: 0xD2D4, symBinAddr: 0x10000E024, symSize: 0x28 }
  - { offsetInCU: 0x1F7B0, offset: 0x1F7B0, size: 0x8, addend: 0x0, symName: __ZNSt12out_of_rangeC2B8ue170006EPKc, symObjAddr: 0xD2FC, symBinAddr: 0x10000E04C, symSize: 0x4C }
  - { offsetInCU: 0x1F7E8, offset: 0x1F7E8, size: 0x8, addend: 0x0, symName: __ZNSt9exceptionC2B8ue170006ERKS_, symObjAddr: 0xD348, symBinAddr: 0x10000E098, symSize: 0x28 }
  - { offsetInCU: 0x1F81C, offset: 0x1F81C, size: 0x8, addend: 0x0, symName: __ZNSt3__111char_traitsIcE4findB8ue170006EPKcmRS2_, symObjAddr: 0xD5A8, symBinAddr: 0x10000E2F8, symSize: 0x84 }
  - { offsetInCU: 0x1F85B, offset: 0x1F85B, size: 0x8, addend: 0x0, symName: __ZNSt3__116allocator_traitsINS_9allocatorIcEEE37select_on_container_copy_constructionB8ue170006IS2_vvEES2_RKS2_, symObjAddr: 0xD6EC, symBinAddr: 0x10000E43C, symSize: 0x10 }
  - { offsetInCU: 0x1F88A, offset: 0x1F88A, size: 0x8, addend: 0x0, symName: __ZNKSt3__112basic_stringIcNS_11char_traitsIcEENS_9allocatorIcEEE13get_allocatorB8ue170006Ev, symObjAddr: 0xD6FC, symBinAddr: 0x10000E44C, symSize: 0x24 }
  - { offsetInCU: 0x1F8B0, offset: 0x1F8B0, size: 0x8, addend: 0x0, symName: __ZNSt3__112basic_stringIcNS_11char_traitsIcEENS_9allocatorIcEEEC1B8ue170006ENS_24__uninitialized_size_tagEmRKS4_, symObjAddr: 0xD720, symBinAddr: 0x10000E470, symSize: 0x3C }
  - { offsetInCU: 0x1F903, offset: 0x1F903, size: 0x8, addend: 0x0, symName: __ZNSt3__112basic_stringIcNS_11char_traitsIcEENS_9allocatorIcEEE13__get_pointerB8ue170006Ev, symObjAddr: 0xD770, symBinAddr: 0x10000E4C0, symSize: 0x54 }
  - { offsetInCU: 0x1F929, offset: 0x1F929, size: 0x8, addend: 0x0, symName: __ZNSt3__111char_traitsIcE4copyB8ue170006EPcPKcm, symObjAddr: 0xD7C4, symBinAddr: 0x10000E514, symSize: 0x64 }
  - { offsetInCU: 0x1F968, offset: 0x1F968, size: 0x8, addend: 0x0, symName: __ZNSt3__111char_traitsIcE6assignB8ue170006EPcmc, symObjAddr: 0xD828, symBinAddr: 0x10000E578, symSize: 0x58 }
  - { offsetInCU: 0x1F9A7, offset: 0x1F9A7, size: 0x8, addend: 0x0, symName: __ZNSt3__112basic_stringIcNS_11char_traitsIcEENS_9allocatorIcEEEC2B8ue170006ENS_24__uninitialized_size_tagEmRKS4_, symObjAddr: 0xD880, symBinAddr: 0x10000E5D0, symSize: 0x110 }
  - { offsetInCU: 0x1FA26, offset: 0x1FA26, size: 0x8, addend: 0x0, symName: __ZNSt3__117__compressed_pairINS_12basic_stringIcNS_11char_traitsIcEENS_9allocatorIcEEE5__repES5_EC1B8ue170006INS_18__default_init_tagERKS5_EEOT_OT0_, symObjAddr: 0xD990, symBinAddr: 0x10000E6E0, symSize: 0x3C }
  - { offsetInCU: 0x1FA7E, offset: 0x1FA7E, size: 0x8, addend: 0x0, symName: __ZNKSt3__112basic_stringIcNS_11char_traitsIcEENS_9allocatorIcEEE20__throw_length_errorB8ue170006Ev, symObjAddr: 0xD9CC, symBinAddr: 0x10000E71C, symSize: 0x1C }
  - { offsetInCU: 0x1FAA4, offset: 0x1FAA4, size: 0x8, addend: 0x0, symName: __ZNSt3__112basic_stringIcNS_11char_traitsIcEENS_9allocatorIcEEE13__fits_in_ssoB8ue170006Em, symObjAddr: 0xD9E8, symBinAddr: 0x10000E738, symSize: 0x4C }
  - { offsetInCU: 0x1FAC8, offset: 0x1FAC8, size: 0x8, addend: 0x0, symName: __ZNSt3__117__compressed_pairINS_12basic_stringIcNS_11char_traitsIcEENS_9allocatorIcEEE5__repES5_EC2B8ue170006INS_18__default_init_tagERKS5_EEOT_OT0_, symObjAddr: 0xDA34, symBinAddr: 0x10000E784, symSize: 0x40 }
  - { offsetInCU: 0x1FB20, offset: 0x1FB20, size: 0x8, addend: 0x0, symName: __ZNSt3__122__compressed_pair_elemINS_9allocatorIcEELi1ELb1EEC2B8ue170006IRKS2_vEEOT_, symObjAddr: 0xDA74, symBinAddr: 0x10000E7C4, symSize: 0x18 }
  - { offsetInCU: 0x1FB9A, offset: 0x1FB9A, size: 0x8, addend: 0x0, symName: __ZNKSt3__114__copy_trivialclB8ue170006IKccLi0EEENS_4pairIPT_PT0_EES5_S5_S7_, symObjAddr: 0xDCAC, symBinAddr: 0x10000E9FC, symSize: 0x48 }
  - { offsetInCU: 0x1FC1C, offset: 0x1FC1C, size: 0x8, addend: 0x0, symName: __ZNSt3__14pairIPKcS2_EC1B8ue170006ERKS2_S5_, symObjAddr: 0xDE28, symBinAddr: 0x10000EB78, symSize: 0x3C }
  - { offsetInCU: 0x1FC62, offset: 0x1FC62, size: 0x8, addend: 0x0, symName: __ZNSt3__14pairIPKcS2_EC2B8ue170006ERKS2_S5_, symObjAddr: 0xDE64, symBinAddr: 0x10000EBB4, symSize: 0x34 }
  - { offsetInCU: 0x1FCA8, offset: 0x1FCA8, size: 0x8, addend: 0x0, symName: __ZNSt3__118__unwrap_iter_implIPKcLb1EE8__unwrapB8ue170006ES2_, symObjAddr: 0xDE98, symBinAddr: 0x10000EBE8, symSize: 0x24 }
  - { offsetInCU: 0x1FCCB, offset: 0x1FCCB, size: 0x8, addend: 0x0, symName: __ZNSt3__14pairIPKcPcEC1B8ue170006ERKS2_RKS3_, symObjAddr: 0xE00C, symBinAddr: 0x10000ED5C, symSize: 0x3C }
  - { offsetInCU: 0x1FD11, offset: 0x1FD11, size: 0x8, addend: 0x0, symName: __ZNSt3__14pairIPKcPcEC2B8ue170006ERKS2_RKS3_, symObjAddr: 0xE048, symBinAddr: 0x10000ED98, symSize: 0x34 }
  - { offsetInCU: 0x1FD57, offset: 0x1FD57, size: 0x8, addend: 0x0, symName: __ZNSt3__118__unwrap_iter_implIPcLb1EE8__unwrapB8ue170006ES1_, symObjAddr: 0xE07C, symBinAddr: 0x10000EDCC, symSize: 0x24 }
  - { offsetInCU: 0x1FD7A, offset: 0x1FD7A, size: 0x8, addend: 0x0, symName: __ZNSt3__118__unwrap_iter_implIPKcLb1EE8__rewrapB8ue170006ES2_S2_, symObjAddr: 0xE0F0, symBinAddr: 0x10000EE40, symSize: 0x48 }
  - { offsetInCU: 0x1FDAB, offset: 0x1FDAB, size: 0x8, addend: 0x0, symName: __ZNSt3__118__unwrap_iter_implIPcLb1EE8__rewrapB8ue170006ES1_S1_, symObjAddr: 0xE138, symBinAddr: 0x10000EE88, symSize: 0x48 }
  - { offsetInCU: 0x1FDDC, offset: 0x1FDDC, size: 0x8, addend: 0x0, symName: __ZNKSt3__19basic_iosIcNS_11char_traitsIcEEE3eofB8ue170006Ev, symObjAddr: 0xE23C, symBinAddr: 0x10000EF8C, symSize: 0x28 }
  - { offsetInCU: 0x1FE02, offset: 0x1FE02, size: 0x8, addend: 0x0, symName: __ZNKSt3__18ios_base3eofB8ue170006Ev, symObjAddr: 0xE264, symBinAddr: 0x10000EFB4, symSize: 0x24 }
  - { offsetInCU: 0x1FE2A, offset: 0x1FE2A, size: 0x8, addend: 0x0, symName: __ZNSt3__19allocatorIcEC1B8ue170006Ev, symObjAddr: 0xE288, symBinAddr: 0x10000EFD8, symSize: 0x2C }
  - { offsetInCU: 0x1FE54, offset: 0x1FE54, size: 0x8, addend: 0x0, symName: __ZN14FunctionalPageI15AccountInfoPageED2Ev, symObjAddr: 0xE2B4, symBinAddr: 0x10000F004, symSize: 0x40 }
  - { offsetInCU: 0x1FE80, offset: 0x1FE80, size: 0x8, addend: 0x0, symName: __ZN14FunctionalPageI15AccountInfoPageE7executeEv, symObjAddr: 0xE2F4, symBinAddr: 0x10000F044, symSize: 0x2C }
  - { offsetInCU: 0x1FEA6, offset: 0x1FEA6, size: 0x8, addend: 0x0, symName: __ZNK14FunctionalPageI15AccountInfoPageE7getNameEv, symObjAddr: 0xE320, symBinAddr: 0x10000F070, symSize: 0x3C }
  - { offsetInCU: 0x1FECC, offset: 0x1FECC, size: 0x8, addend: 0x0, symName: __ZN15AccountInfoPage6actionEv, symObjAddr: 0xE35C, symBinAddr: 0x10000F0AC, symSize: 0x200 }
  - { offsetInCU: 0x1FEF2, offset: 0x1FEF2, size: 0x8, addend: 0x0, symName: __ZN15AccountModifier10formatDataER11FileHandlerR14AccountStorage, symObjAddr: 0xE55C, symBinAddr: 0x10000F2AC, symSize: 0x64 }
  - { offsetInCU: 0x1FF50, offset: 0x1FF50, size: 0x8, addend: 0x0, symName: __ZNK14AccountStorage10getAccountEv, symObjAddr: 0xE5C0, symBinAddr: 0x10000F310, symSize: 0x18 }
  - { offsetInCU: 0x1FF76, offset: 0x1FF76, size: 0x8, addend: 0x0, symName: __ZNK7Account14getAccountTypeEv, symObjAddr: 0xE5D8, symBinAddr: 0x10000F328, symSize: 0x18 }
  - { offsetInCU: 0x1FF9C, offset: 0x1FF9C, size: 0x8, addend: 0x0, symName: __ZNK7Account5getIdEv, symObjAddr: 0xE5F0, symBinAddr: 0x10000F340, symSize: 0x3C }
  - { offsetInCU: 0x1FFC2, offset: 0x1FFC2, size: 0x8, addend: 0x0, symName: __ZNK7Account5getPwEv, symObjAddr: 0xE62C, symBinAddr: 0x10000F37C, symSize: 0x3C }
  - { offsetInCU: 0x1FFE8, offset: 0x1FFE8, size: 0x8, addend: 0x0, symName: __ZN15AccountModifier13createAccountER11FileHandlerR14AccountStorage, symObjAddr: 0xE668, symBinAddr: 0x10000F3B8, symSize: 0x380 }
  - { offsetInCU: 0x20057, offset: 0x20057, size: 0x8, addend: 0x0, symName: __ZN14AccountStorage10addAccountEP7Account, symObjAddr: 0xE9E8, symBinAddr: 0x10000F738, symSize: 0x30 }
  - { offsetInCU: 0x2008B, offset: 0x2008B, size: 0x8, addend: 0x0, symName: __ZN7AccountC1E11AccountTypeNSt3__112basic_stringIcNS1_11char_traitsIcEENS1_9allocatorIcEEEES7_, symObjAddr: 0xEA18, symBinAddr: 0x10000F768, symSize: 0x44 }
  - { offsetInCU: 0x200E1, offset: 0x200E1, size: 0x8, addend: 0x0, symName: __ZN7AccountC2E11AccountTypeNSt3__112basic_stringIcNS1_11char_traitsIcEENS1_9allocatorIcEEEES7_, symObjAddr: 0xEA5C, symBinAddr: 0x10000F7AC, symSize: 0x98 }
  - { offsetInCU: 0x20137, offset: 0x20137, size: 0x8, addend: 0x0, symName: __ZNSt3__16vectorIP7AccountNS_9allocatorIS2_EEE9push_backB8ue170006ERKS2_, symObjAddr: 0xEAF4, symBinAddr: 0x10000F844, symSize: 0x6C }
  - { offsetInCU: 0x2016E, offset: 0x2016E, size: 0x8, addend: 0x0, symName: __ZNSt3__16vectorIP7AccountNS_9allocatorIS2_EEE9__end_capB8ue170006Ev, symObjAddr: 0xEB60, symBinAddr: 0x10000F8B0, symSize: 0x28 }
  - { offsetInCU: 0x20194, offset: 0x20194, size: 0x8, addend: 0x0, symName: __ZNSt3__16vectorIP7AccountNS_9allocatorIS2_EEE22__construct_one_at_endB8ue170006IJRKS2_EEEvDpOT_, symObjAddr: 0xEB88, symBinAddr: 0x10000F8D8, symSize: 0x98 }
  - { offsetInCU: 0x201E3, offset: 0x201E3, size: 0x8, addend: 0x0, symName: __ZNSt3__16vectorIP7AccountNS_9allocatorIS2_EEE21__push_back_slow_pathIRKS2_EEvOT_, symObjAddr: 0xEC20, symBinAddr: 0x10000F970, symSize: 0xE0 }
  - { offsetInCU: 0x20241, offset: 0x20241, size: 0x8, addend: 0x0, symName: __ZNSt3__117__compressed_pairIPP7AccountNS_9allocatorIS2_EEE5firstB8ue170006Ev, symObjAddr: 0xED00, symBinAddr: 0x10000FA50, symSize: 0x24 }
  - { offsetInCU: 0x20267, offset: 0x20267, size: 0x8, addend: 0x0, symName: __ZNSt3__122__compressed_pair_elemIPP7AccountLi0ELb0EE5__getB8ue170006Ev, symObjAddr: 0xED24, symBinAddr: 0x10000FA74, symSize: 0x14 }
  - { offsetInCU: 0x202A6, offset: 0x202A6, size: 0x8, addend: 0x0, symName: __ZNSt3__16vectorIP7AccountNS_9allocatorIS2_EEE21_ConstructTransactionC1B8ue170006ERS5_m, symObjAddr: 0xED38, symBinAddr: 0x10000FA88, symSize: 0x3C }
  - { offsetInCU: 0x202EE, offset: 0x202EE, size: 0x8, addend: 0x0, symName: __ZNSt3__116allocator_traitsINS_9allocatorIP7AccountEEE9constructB8ue170006IS3_JRKS3_EvEEvRS4_PT_DpOT0_, symObjAddr: 0xED74, symBinAddr: 0x10000FAC4, symSize: 0x34 }
  - { offsetInCU: 0x20345, offset: 0x20345, size: 0x8, addend: 0x0, symName: __ZNSt3__16vectorIP7AccountNS_9allocatorIS2_EEE7__allocB8ue170006Ev, symObjAddr: 0xEDA8, symBinAddr: 0x10000FAF8, symSize: 0x28 }
  - { offsetInCU: 0x2036B, offset: 0x2036B, size: 0x8, addend: 0x0, symName: __ZNSt3__16vectorIP7AccountNS_9allocatorIS2_EEE21_ConstructTransactionD1B8ue170006Ev, symObjAddr: 0xEDE4, symBinAddr: 0x10000FB34, symSize: 0x2C }
  - { offsetInCU: 0x20395, offset: 0x20395, size: 0x8, addend: 0x0, symName: __ZNSt3__16vectorIP7AccountNS_9allocatorIS2_EEE21_ConstructTransactionC2B8ue170006ERS5_m, symObjAddr: 0xEE10, symBinAddr: 0x10000FB60, symSize: 0x44 }
  - { offsetInCU: 0x203DD, offset: 0x203DD, size: 0x8, addend: 0x0, symName: __ZNSt3__19allocatorIP7AccountE9constructB8ue170006IS2_JRKS2_EEEvPT_DpOT0_, symObjAddr: 0xEE54, symBinAddr: 0x10000FBA4, symSize: 0x28 }
  - { offsetInCU: 0x20433, offset: 0x20433, size: 0x8, addend: 0x0, symName: __ZNSt3__117__compressed_pairIPP7AccountNS_9allocatorIS2_EEE6secondB8ue170006Ev, symObjAddr: 0xEE7C, symBinAddr: 0x10000FBCC, symSize: 0x24 }
  - { offsetInCU: 0x20459, offset: 0x20459, size: 0x8, addend: 0x0, symName: __ZNSt3__122__compressed_pair_elemINS_9allocatorIP7AccountEELi1ELb1EE5__getB8ue170006Ev, symObjAddr: 0xEEA0, symBinAddr: 0x10000FBF0, symSize: 0x14 }
  - { offsetInCU: 0x2047F, offset: 0x2047F, size: 0x8, addend: 0x0, symName: __ZNSt3__16vectorIP7AccountNS_9allocatorIS2_EEE21_ConstructTransactionD2B8ue170006Ev, symObjAddr: 0xEEB4, symBinAddr: 0x10000FC04, symSize: 0x20 }
  - { offsetInCU: 0x204A9, offset: 0x204A9, size: 0x8, addend: 0x0, symName: __ZNKSt3__16vectorIP7AccountNS_9allocatorIS2_EEE11__recommendB8ue170006Em, symObjAddr: 0xEED4, symBinAddr: 0x10000FC24, symSize: 0xB4 }
  - { offsetInCU: 0x204FE, offset: 0x204FE, size: 0x8, addend: 0x0, symName: __ZNKSt3__16vectorIP7AccountNS_9allocatorIS2_EEE4sizeB8ue170006Ev, symObjAddr: 0xEF88, symBinAddr: 0x10000FCD8, symSize: 0x28 }
  - { offsetInCU: 0x20524, offset: 0x20524, size: 0x8, addend: 0x0, symName: __ZNSt3__114__split_bufferIP7AccountRNS_9allocatorIS2_EEEC1EmmS5_, symObjAddr: 0xEFB0, symBinAddr: 0x10000FD00, symSize: 0x44 }
  - { offsetInCU: 0x2057A, offset: 0x2057A, size: 0x8, addend: 0x0, symName: __ZNSt3__114__split_bufferIP7AccountRNS_9allocatorIS2_EEED1Ev, symObjAddr: 0xF104, symBinAddr: 0x10000FE54, symSize: 0x2C }
  - { offsetInCU: 0x205A6, offset: 0x205A6, size: 0x8, addend: 0x0, symName: __ZNKSt3__16vectorIP7AccountNS_9allocatorIS2_EEE8max_sizeEv, symObjAddr: 0xF130, symBinAddr: 0x10000FE80, symSize: 0x74 }
  - { offsetInCU: 0x205CE, offset: 0x205CE, size: 0x8, addend: 0x0, symName: __ZNKSt3__16vectorIP7AccountNS_9allocatorIS2_EEE20__throw_length_errorB8ue170006Ev, symObjAddr: 0xF1A4, symBinAddr: 0x10000FEF4, symSize: 0x1C }
  - { offsetInCU: 0x205F4, offset: 0x205F4, size: 0x8, addend: 0x0, symName: __ZNKSt3__16vectorIP7AccountNS_9allocatorIS2_EEE8capacityB8ue170006Ev, symObjAddr: 0xF1C0, symBinAddr: 0x10000FF10, symSize: 0x40 }
  - { offsetInCU: 0x20624, offset: 0x20624, size: 0x8, addend: 0x0, symName: __ZNSt3__116allocator_traitsINS_9allocatorIP7AccountEEE8max_sizeB8ue170006IS4_vEEmRKS4_, symObjAddr: 0xF200, symBinAddr: 0x10000FF50, symSize: 0x24 }
  - { offsetInCU: 0x20652, offset: 0x20652, size: 0x8, addend: 0x0, symName: __ZNKSt3__16vectorIP7AccountNS_9allocatorIS2_EEE7__allocB8ue170006Ev, symObjAddr: 0xF224, symBinAddr: 0x10000FF74, symSize: 0x28 }
  - { offsetInCU: 0x20678, offset: 0x20678, size: 0x8, addend: 0x0, symName: __ZNKSt3__19allocatorIP7AccountE8max_sizeB8ue170006Ev, symObjAddr: 0xF24C, symBinAddr: 0x10000FF9C, symSize: 0x14 }
  - { offsetInCU: 0x2069E, offset: 0x2069E, size: 0x8, addend: 0x0, symName: __ZNKSt3__117__compressed_pairIPP7AccountNS_9allocatorIS2_EEE6secondB8ue170006Ev, symObjAddr: 0xF260, symBinAddr: 0x10000FFB0, symSize: 0x24 }
  - { offsetInCU: 0x206C4, offset: 0x206C4, size: 0x8, addend: 0x0, symName: __ZNKSt3__122__compressed_pair_elemINS_9allocatorIP7AccountEELi1ELb1EE5__getB8ue170006Ev, symObjAddr: 0xF284, symBinAddr: 0x10000FFD4, symSize: 0x14 }
  - { offsetInCU: 0x206EA, offset: 0x206EA, size: 0x8, addend: 0x0, symName: __ZNKSt3__16vectorIP7AccountNS_9allocatorIS2_EEE9__end_capB8ue170006Ev, symObjAddr: 0xF298, symBinAddr: 0x10000FFE8, symSize: 0x28 }
  - { offsetInCU: 0x20710, offset: 0x20710, size: 0x8, addend: 0x0, symName: __ZNKSt3__117__compressed_pairIPP7AccountNS_9allocatorIS2_EEE5firstB8ue170006Ev, symObjAddr: 0xF2C0, symBinAddr: 0x100010010, symSize: 0x24 }
  - { offsetInCU: 0x20736, offset: 0x20736, size: 0x8, addend: 0x0, symName: __ZNKSt3__122__compressed_pair_elemIPP7AccountLi0ELb0EE5__getB8ue170006Ev, symObjAddr: 0xF2E4, symBinAddr: 0x100010034, symSize: 0x14 }
  - { offsetInCU: 0x2075C, offset: 0x2075C, size: 0x8, addend: 0x0, symName: __ZNSt3__114__split_bufferIP7AccountRNS_9allocatorIS2_EEEC2EmmS5_, symObjAddr: 0xF2F8, symBinAddr: 0x100010048, symSize: 0xD4 }
  - { offsetInCU: 0x207CF, offset: 0x207CF, size: 0x8, addend: 0x0, symName: __ZNSt3__117__compressed_pairIPP7AccountRNS_9allocatorIS2_EEEC1B8ue170006IDnS6_EEOT_OT0_, symObjAddr: 0xF3CC, symBinAddr: 0x10001011C, symSize: 0x3C }
  - { offsetInCU: 0x20827, offset: 0x20827, size: 0x8, addend: 0x0, symName: __ZNSt3__114__split_bufferIP7AccountRNS_9allocatorIS2_EEE7__allocB8ue170006Ev, symObjAddr: 0xF448, symBinAddr: 0x100010198, symSize: 0x28 }
  - { offsetInCU: 0x2084D, offset: 0x2084D, size: 0x8, addend: 0x0, symName: __ZNSt3__114__split_bufferIP7AccountRNS_9allocatorIS2_EEE9__end_capB8ue170006Ev, symObjAddr: 0xF470, symBinAddr: 0x1000101C0, symSize: 0x28 }
  - { offsetInCU: 0x20873, offset: 0x20873, size: 0x8, addend: 0x0, symName: __ZNSt3__117__compressed_pairIPP7AccountRNS_9allocatorIS2_EEEC2B8ue170006IDnS6_EEOT_OT0_, symObjAddr: 0xF498, symBinAddr: 0x1000101E8, symSize: 0x48 }
  - { offsetInCU: 0x208CB, offset: 0x208CB, size: 0x8, addend: 0x0, symName: __ZNSt3__122__compressed_pair_elemIRNS_9allocatorIP7AccountEELi1ELb0EEC2B8ue170006IS5_vEEOT_, symObjAddr: 0xF4E0, symBinAddr: 0x100010230, symSize: 0x20 }
  - { offsetInCU: 0x2090D, offset: 0x2090D, size: 0x8, addend: 0x0, symName: __ZNSt3__19allocatorIP7AccountE8allocateB8ue170006Em, symObjAddr: 0xF500, symBinAddr: 0x100010250, symSize: 0x84 }
  - { offsetInCU: 0x20941, offset: 0x20941, size: 0x8, addend: 0x0, symName: __ZNSt3__117__compressed_pairIPP7AccountRNS_9allocatorIS2_EEE6secondB8ue170006Ev, symObjAddr: 0xF584, symBinAddr: 0x1000102D4, symSize: 0x28 }
  - { offsetInCU: 0x20967, offset: 0x20967, size: 0x8, addend: 0x0, symName: __ZNSt3__122__compressed_pair_elemIRNS_9allocatorIP7AccountEELi1ELb0EE5__getB8ue170006Ev, symObjAddr: 0xF5AC, symBinAddr: 0x1000102FC, symSize: 0x18 }
  - { offsetInCU: 0x2098D, offset: 0x2098D, size: 0x8, addend: 0x0, symName: __ZNSt3__117__compressed_pairIPP7AccountRNS_9allocatorIS2_EEE5firstB8ue170006Ev, symObjAddr: 0xF5C4, symBinAddr: 0x100010314, symSize: 0x24 }
  - { offsetInCU: 0x209B3, offset: 0x209B3, size: 0x8, addend: 0x0, symName: __ZNKSt3__16vectorIP7AccountNS_9allocatorIS2_EEE17__annotate_deleteB8ue170006Ev, symObjAddr: 0xF5E8, symBinAddr: 0x100010338, symSize: 0xB8 }
  - { offsetInCU: 0x209D9, offset: 0x209D9, size: 0x8, addend: 0x0, symName: __ZNSt3__116reverse_iteratorIPP7AccountEC1B8ue170006ES3_, symObjAddr: 0xF788, symBinAddr: 0x1000104D8, symSize: 0x34 }
  - { offsetInCU: 0x20A11, offset: 0x20A11, size: 0x8, addend: 0x0, symName: __ZNKSt3__116reverse_iteratorIPP7AccountE4baseB8ue170006Ev, symObjAddr: 0xF7BC, symBinAddr: 0x10001050C, symSize: 0x18 }
  - { offsetInCU: 0x20A37, offset: 0x20A37, size: 0x8, addend: 0x0, symName: __ZNKSt3__16vectorIP7AccountNS_9allocatorIS2_EEE14__annotate_newB8ue170006Em, symObjAddr: 0xF810, symBinAddr: 0x100010560, symSize: 0xAC }
  - { offsetInCU: 0x20A6C, offset: 0x20A6C, size: 0x8, addend: 0x0, symName: __ZNKSt3__16vectorIP7AccountNS_9allocatorIS2_EEE31__annotate_contiguous_containerB8ue170006EPKvS7_S7_S7_, symObjAddr: 0xF8BC, symBinAddr: 0x10001060C, symSize: 0x20 }
  - { offsetInCU: 0x20ABE, offset: 0x20ABE, size: 0x8, addend: 0x0, symName: __ZNKSt3__16vectorIP7AccountNS_9allocatorIS2_EEE4dataB8ue170006Ev, symObjAddr: 0xF8DC, symBinAddr: 0x10001062C, symSize: 0x28 }
  - { offsetInCU: 0x20AE4, offset: 0x20AE4, size: 0x8, addend: 0x0, symName: __ZNKSt3__116reverse_iteratorIPP7AccountEdeB8ue170006Ev, symObjAddr: 0xF99C, symBinAddr: 0x1000106EC, symSize: 0x28 }
  - { offsetInCU: 0x20B18, offset: 0x20B18, size: 0x8, addend: 0x0, symName: __ZNSt3__116reverse_iteratorIPP7AccountEppB8ue170006Ev, symObjAddr: 0xF9C4, symBinAddr: 0x100010714, symSize: 0x20 }
  - { offsetInCU: 0x20B43, offset: 0x20B43, size: 0x8, addend: 0x0, symName: __ZNSt3__119__to_address_helperINS_16reverse_iteratorIPP7AccountEEvE6__callB8ue170006ERKS5_, symObjAddr: 0xFA5C, symBinAddr: 0x1000107AC, symSize: 0x4C }
  - { offsetInCU: 0x20B66, offset: 0x20B66, size: 0x8, addend: 0x0, symName: __ZNKSt3__116reverse_iteratorIPP7AccountEptB8ue170006Ev, symObjAddr: 0xFAA8, symBinAddr: 0x1000107F8, symSize: 0x24 }
  - { offsetInCU: 0x20BA6, offset: 0x20BA6, size: 0x8, addend: 0x0, symName: __ZNKSt3__111__move_loopINS_17_ClassicAlgPolicyEEclB8ue170006INS_16reverse_iteratorIPP7AccountEES8_S8_EENS_4pairIT_T1_EESA_T0_SB_, symObjAddr: 0xFD44, symBinAddr: 0x100010A94, symSize: 0xA0 }
  - { offsetInCU: 0x20C17, offset: 0x20C17, size: 0x8, addend: 0x0, symName: __ZNSt3__18_IterOpsINS_17_ClassicAlgPolicyEE11__iter_moveB8ue170006IRNS_16reverse_iteratorIPP7AccountEEEENS_9enable_ifIXsr12is_referenceIDTdeclsr3stdE7declvalIRT_EEEEE5valueEDTclsr3stdE4movedeclsr3stdE7declvalISC_EEEEE4typeEOSB_, symObjAddr: 0xFF44, symBinAddr: 0x100010C94, symSize: 0x28 }
  - { offsetInCU: 0x20C43, offset: 0x20C43, size: 0x8, addend: 0x0, symName: __ZNSt3__18_IterOpsINS_17_ClassicAlgPolicyEE25__validate_iter_referenceB8ue170006IRNS_16reverse_iteratorIPP7AccountEEEEvv, symObjAddr: 0xFF6C, symBinAddr: 0x100010CBC, symSize: 0x4 }
  - { offsetInCU: 0x20C61, offset: 0x20C61, size: 0x8, addend: 0x0, symName: __ZNSt3__118__unwrap_iter_implINS_16reverse_iteratorIPP7AccountEELb0EE8__unwrapB8ue170006ES5_, symObjAddr: 0xFF70, symBinAddr: 0x100010CC0, symSize: 0x24 }
  - { offsetInCU: 0x20C84, offset: 0x20C84, size: 0x8, addend: 0x0, symName: __ZNSt3__14pairINS_16reverse_iteratorIPP7AccountEES5_EC1B8ue170006ERKS5_S8_, symObjAddr: 0xFF94, symBinAddr: 0x100010CE4, symSize: 0x3C }
  - { offsetInCU: 0x20CCA, offset: 0x20CCA, size: 0x8, addend: 0x0, symName: __ZNSt3__14pairINS_16reverse_iteratorIPP7AccountEES5_EC2B8ue170006ERKS5_S8_, symObjAddr: 0xFFD0, symBinAddr: 0x100010D20, symSize: 0x34 }
  - { offsetInCU: 0x20D10, offset: 0x20D10, size: 0x8, addend: 0x0, symName: __ZNSt3__118__unwrap_iter_implINS_16reverse_iteratorIPP7AccountEELb0EE8__rewrapB8ue170006ES5_S5_, symObjAddr: 0x10004, symBinAddr: 0x100010D54, symSize: 0x2C }
  - { offsetInCU: 0x20D3D, offset: 0x20D3D, size: 0x8, addend: 0x0, symName: __ZNSt3__116reverse_iteratorIPP7AccountEC2B8ue170006ES3_, symObjAddr: 0x10030, symBinAddr: 0x100010D80, symSize: 0x28 }
  - { offsetInCU: 0x20D75, offset: 0x20D75, size: 0x8, addend: 0x0, symName: __ZNSt3__114__split_bufferIP7AccountRNS_9allocatorIS2_EEED2Ev, symObjAddr: 0x10058, symBinAddr: 0x100010DA8, symSize: 0x80 }
  - { offsetInCU: 0x20DA1, offset: 0x20DA1, size: 0x8, addend: 0x0, symName: __ZNSt3__114__split_bufferIP7AccountRNS_9allocatorIS2_EEE5clearB8ue170006Ev, symObjAddr: 0x100D8, symBinAddr: 0x100010E28, symSize: 0x28 }
  - { offsetInCU: 0x20DC7, offset: 0x20DC7, size: 0x8, addend: 0x0, symName: __ZNSt3__116allocator_traitsINS_9allocatorIP7AccountEEE10deallocateB8ue170006ERS4_PS3_m, symObjAddr: 0x10100, symBinAddr: 0x100010E50, symSize: 0x34 }
  - { offsetInCU: 0x20E09, offset: 0x20E09, size: 0x8, addend: 0x0, symName: __ZNKSt3__114__split_bufferIP7AccountRNS_9allocatorIS2_EEE8capacityB8ue170006Ev, symObjAddr: 0x10134, symBinAddr: 0x100010E84, symSize: 0x40 }
  - { offsetInCU: 0x20E2F, offset: 0x20E2F, size: 0x8, addend: 0x0, symName: __ZNSt3__114__split_bufferIP7AccountRNS_9allocatorIS2_EEE17__destruct_at_endB8ue170006EPS2_, symObjAddr: 0x10174, symBinAddr: 0x100010EC4, symSize: 0x2C }
  - { offsetInCU: 0x20E63, offset: 0x20E63, size: 0x8, addend: 0x0, symName: __ZNSt3__114__split_bufferIP7AccountRNS_9allocatorIS2_EEE17__destruct_at_endB8ue170006EPS2_NS_17integral_constantIbLb0EEE, symObjAddr: 0x101A0, symBinAddr: 0x100010EF0, symSize: 0x94 }
  - { offsetInCU: 0x20EA3, offset: 0x20EA3, size: 0x8, addend: 0x0, symName: __ZNSt3__116allocator_traitsINS_9allocatorIP7AccountEEE7destroyB8ue170006IS3_vEEvRS4_PT_, symObjAddr: 0x10234, symBinAddr: 0x100010F84, symSize: 0x2C }
  - { offsetInCU: 0x20EE0, offset: 0x20EE0, size: 0x8, addend: 0x0, symName: __ZNSt3__19allocatorIP7AccountE7destroyB8ue170006EPS2_, symObjAddr: 0x10260, symBinAddr: 0x100010FB0, symSize: 0x14 }
  - { offsetInCU: 0x20F14, offset: 0x20F14, size: 0x8, addend: 0x0, symName: __ZNSt3__19allocatorIP7AccountE10deallocateB8ue170006EPS2_m, symObjAddr: 0x10274, symBinAddr: 0x100010FC4, symSize: 0x70 }
  - { offsetInCU: 0x20F56, offset: 0x20F56, size: 0x8, addend: 0x0, symName: __ZNKSt3__114__split_bufferIP7AccountRNS_9allocatorIS2_EEE9__end_capB8ue170006Ev, symObjAddr: 0x102E4, symBinAddr: 0x100011034, symSize: 0x28 }
  - { offsetInCU: 0x20F7C, offset: 0x20F7C, size: 0x8, addend: 0x0, symName: __ZNKSt3__117__compressed_pairIPP7AccountRNS_9allocatorIS2_EEE5firstB8ue170006Ev, symObjAddr: 0x1030C, symBinAddr: 0x10001105C, symSize: 0x24 }
  - { offsetInCU: 0x20FA2, offset: 0x20FA2, size: 0x8, addend: 0x0, symName: __ZN14FunctionalPageI13FavoritesPageED2Ev, symObjAddr: 0x10330, symBinAddr: 0x100011080, symSize: 0x40 }
  - { offsetInCU: 0x20FCE, offset: 0x20FCE, size: 0x8, addend: 0x0, symName: __ZN14FunctionalPageI13FavoritesPageE7executeEv, symObjAddr: 0x10370, symBinAddr: 0x1000110C0, symSize: 0x2C }
  - { offsetInCU: 0x20FF4, offset: 0x20FF4, size: 0x8, addend: 0x0, symName: __ZNK14FunctionalPageI13FavoritesPageE7getNameEv, symObjAddr: 0x1039C, symBinAddr: 0x1000110EC, symSize: 0x3C }
  - { offsetInCU: 0x2101A, offset: 0x2101A, size: 0x8, addend: 0x0, symName: __ZN13FavoritesPage6actionEv, symObjAddr: 0x103D8, symBinAddr: 0x100011128, symSize: 0x68 }
  - { offsetInCU: 0x21040, offset: 0x21040, size: 0x8, addend: 0x0, symName: __ZN14FunctionalPageI16OrderHistoryPageED2Ev, symObjAddr: 0x10440, symBinAddr: 0x100011190, symSize: 0x40 }
  - { offsetInCU: 0x2106C, offset: 0x2106C, size: 0x8, addend: 0x0, symName: __ZN14FunctionalPageI16OrderHistoryPageE7executeEv, symObjAddr: 0x10480, symBinAddr: 0x1000111D0, symSize: 0x2C }
  - { offsetInCU: 0x21092, offset: 0x21092, size: 0x8, addend: 0x0, symName: __ZNK14FunctionalPageI16OrderHistoryPageE7getNameEv, symObjAddr: 0x104AC, symBinAddr: 0x1000111FC, symSize: 0x3C }
  - { offsetInCU: 0x210B8, offset: 0x210B8, size: 0x8, addend: 0x0, symName: __ZN16OrderHistoryPage6actionEv, symObjAddr: 0x104E8, symBinAddr: 0x100011238, symSize: 0x68 }
  - { offsetInCU: 0x210DE, offset: 0x210DE, size: 0x8, addend: 0x0, symName: __ZN14FunctionalPageI14CategoriesPageED2Ev, symObjAddr: 0x10550, symBinAddr: 0x1000112A0, symSize: 0x40 }
  - { offsetInCU: 0x2110A, offset: 0x2110A, size: 0x8, addend: 0x0, symName: __ZN14FunctionalPageI14CategoriesPageE7executeEv, symObjAddr: 0x10590, symBinAddr: 0x1000112E0, symSize: 0x2C }
  - { offsetInCU: 0x21130, offset: 0x21130, size: 0x8, addend: 0x0, symName: __ZNK14FunctionalPageI14CategoriesPageE7getNameEv, symObjAddr: 0x105BC, symBinAddr: 0x10001130C, symSize: 0x3C }
  - { offsetInCU: 0x21156, offset: 0x21156, size: 0x8, addend: 0x0, symName: __ZN14CategoriesPage6actionEv, symObjAddr: 0x105F8, symBinAddr: 0x100011348, symSize: 0x8C }
  - { offsetInCU: 0x2118B, offset: 0x2118B, size: 0x8, addend: 0x0, symName: __ZN14FunctionalPageI10SearchPageED2Ev, symObjAddr: 0x10684, symBinAddr: 0x1000113D4, symSize: 0x40 }
  - { offsetInCU: 0x211B7, offset: 0x211B7, size: 0x8, addend: 0x0, symName: __ZN14FunctionalPageI10SearchPageE7executeEv, symObjAddr: 0x106C4, symBinAddr: 0x100011414, symSize: 0x2C }
  - { offsetInCU: 0x211DD, offset: 0x211DD, size: 0x8, addend: 0x0, symName: __ZNK14FunctionalPageI10SearchPageE7getNameEv, symObjAddr: 0x106F0, symBinAddr: 0x100011440, symSize: 0x3C }
  - { offsetInCU: 0x21203, offset: 0x21203, size: 0x8, addend: 0x0, symName: __ZN10SearchPage6actionEv, symObjAddr: 0x1072C, symBinAddr: 0x10001147C, symSize: 0xD34 }
  - { offsetInCU: 0x21408, offset: 0x21408, size: 0x8, addend: 0x0, symName: __ZN13StoreModifier10formatDataER11FileHandlerR11StoreVector, symObjAddr: 0x11460, symBinAddr: 0x1000121B0, symSize: 0x190 }
  - { offsetInCU: 0x2151E, offset: 0x2151E, size: 0x8, addend: 0x0, symName: __ZN7stringKC1ENSt3__112basic_stringIcNS0_11char_traitsIcEENS0_9allocatorIcEEEE, symObjAddr: 0x115F0, symBinAddr: 0x100012340, symSize: 0x34 }
  - { offsetInCU: 0x21557, offset: 0x21557, size: 0x8, addend: 0x0, symName: __ZNSt3__113basic_ostreamIcNS_11char_traitsIcEEElsB8ue170006EPFRNS_8ios_baseES5_E, symObjAddr: 0x11664, symBinAddr: 0x1000123B4, symSize: 0x40 }
  - { offsetInCU: 0x2158B, offset: 0x2158B, size: 0x8, addend: 0x0, symName: __ZNK7stringK6getStrEv, symObjAddr: 0x116D4, symBinAddr: 0x100012424, symSize: 0x38 }
  - { offsetInCU: 0x215B1, offset: 0x215B1, size: 0x8, addend: 0x0, symName: __ZN7stringK4sizeEv, symObjAddr: 0x11768, symBinAddr: 0x1000124B8, symSize: 0x40 }
  - { offsetInCU: 0x215D7, offset: 0x215D7, size: 0x8, addend: 0x0, symName: __ZN7stringKD1Ev, symObjAddr: 0x117A8, symBinAddr: 0x1000124F8, symSize: 0x2C }
  - { offsetInCU: 0x21603, offset: 0x21603, size: 0x8, addend: 0x0, symName: __ZN11StoreVector14findStore2MenuENSt3__112basic_stringIcNS0_11char_traitsIcEENS0_9allocatorIcEEEEi, symObjAddr: 0x117D4, symBinAddr: 0x100012524, symSize: 0x48C }
  - { offsetInCU: 0x216D2, offset: 0x216D2, size: 0x8, addend: 0x0, symName: __ZN13StoreModifier11createStoreER11FileHandlerR11StoreVector, symObjAddr: 0x11C60, symBinAddr: 0x1000129B0, symSize: 0x1F8 }
  - { offsetInCU: 0x21722, offset: 0x21722, size: 0x8, addend: 0x0, symName: __ZN13StoreModifier10createMenuER11FileHandlerR11StoreVector, symObjAddr: 0x11E58, symBinAddr: 0x100012BA8, symSize: 0x32C }
  - { offsetInCU: 0x217AE, offset: 0x217AE, size: 0x8, addend: 0x0, symName: __ZN11StoreVector11insertStoreEP10menuVector, symObjAddr: 0x12184, symBinAddr: 0x100012ED4, symSize: 0xC4 }
  - { offsetInCU: 0x217E2, offset: 0x217E2, size: 0x8, addend: 0x0, symName: __ZN5storeC1ENSt3__112basic_stringIcNS0_11char_traitsIcEENS0_9allocatorIcEEEE, symObjAddr: 0x12248, symBinAddr: 0x100012F98, symSize: 0x34 }
  - { offsetInCU: 0x2181B, offset: 0x2181B, size: 0x8, addend: 0x0, symName: __ZN5store12setCatergoryENSt3__112basic_stringIcNS0_11char_traitsIcEENS0_9allocatorIcEEEE, symObjAddr: 0x1227C, symBinAddr: 0x100012FCC, symSize: 0x30 }
  - { offsetInCU: 0x21850, offset: 0x21850, size: 0x8, addend: 0x0, symName: __ZN5store6setTelENSt3__112basic_stringIcNS0_11char_traitsIcEENS0_9allocatorIcEEEE, symObjAddr: 0x122AC, symBinAddr: 0x100012FFC, symSize: 0x30 }
  - { offsetInCU: 0x21885, offset: 0x21885, size: 0x8, addend: 0x0, symName: __ZN5store9setReviewENSt3__112basic_stringIcNS0_11char_traitsIcEENS0_9allocatorIcEEEE, symObjAddr: 0x122DC, symBinAddr: 0x10001302C, symSize: 0x3C }
  - { offsetInCU: 0x218BA, offset: 0x218BA, size: 0x8, addend: 0x0, symName: __ZN5storeC2ENSt3__112basic_stringIcNS0_11char_traitsIcEENS0_9allocatorIcEEEE, symObjAddr: 0x12318, symBinAddr: 0x100013068, symSize: 0x138 }
  - { offsetInCU: 0x218F3, offset: 0x218F3, size: 0x8, addend: 0x0, symName: __ZN10menuVectorC2Ev, symObjAddr: 0x12450, symBinAddr: 0x1000131A0, symSize: 0x24 }
  - { offsetInCU: 0x2191F, offset: 0x2191F, size: 0x8, addend: 0x0, symName: __ZNSt3__16vectorIP4menuNS_9allocatorIS2_EEEC1B8ue170006Ev, symObjAddr: 0x12474, symBinAddr: 0x1000131C4, symSize: 0x2C }
  - { offsetInCU: 0x21949, offset: 0x21949, size: 0x8, addend: 0x0, symName: __ZNK5store7getNameEv, symObjAddr: 0x124A0, symBinAddr: 0x1000131F0, symSize: 0x3C }
  - { offsetInCU: 0x2196F, offset: 0x2196F, size: 0x8, addend: 0x0, symName: __ZNK5store6getTelEv, symObjAddr: 0x124DC, symBinAddr: 0x10001322C, symSize: 0x3C }
  - { offsetInCU: 0x21995, offset: 0x21995, size: 0x8, addend: 0x0, symName: __ZNK5store11getCategoryEv, symObjAddr: 0x12518, symBinAddr: 0x100013268, symSize: 0x3C }
  - { offsetInCU: 0x219BB, offset: 0x219BB, size: 0x8, addend: 0x0, symName: __ZNK5store9getReviewEv, symObjAddr: 0x12554, symBinAddr: 0x1000132A4, symSize: 0x3C }
  - { offsetInCU: 0x219E1, offset: 0x219E1, size: 0x8, addend: 0x0, symName: __ZNK5store12getReviewValEv, symObjAddr: 0x12590, symBinAddr: 0x1000132E0, symSize: 0x18 }
  - { offsetInCU: 0x21A07, offset: 0x21A07, size: 0x8, addend: 0x0, symName: __ZNK5store7hasMenuENSt3__112basic_stringIcNS0_11char_traitsIcEENS0_9allocatorIcEEEE, symObjAddr: 0x125A8, symBinAddr: 0x1000132F8, symSize: 0xE4 }
  - { offsetInCU: 0x21A9B, offset: 0x21A9B, size: 0x8, addend: 0x0, symName: __ZNK5store7getMenuEi, symObjAddr: 0x1268C, symBinAddr: 0x1000133DC, symSize: 0x34 }
  - { offsetInCU: 0x21ACF, offset: 0x21ACF, size: 0x8, addend: 0x0, symName: __ZNK5store7getMenuENSt3__112basic_stringIcNS0_11char_traitsIcEENS0_9allocatorIcEEEE, symObjAddr: 0x126C0, symBinAddr: 0x100013410, symSize: 0xE4 }
  - { offsetInCU: 0x21B55, offset: 0x21B55, size: 0x8, addend: 0x0, symName: __ZNK5store7allMenuEv, symObjAddr: 0x127A4, symBinAddr: 0x1000134F4, symSize: 0x3C }
  - { offsetInCU: 0x21B7B, offset: 0x21B7B, size: 0x8, addend: 0x0, symName: __ZN5store7addMenuEP4menu, symObjAddr: 0x127E0, symBinAddr: 0x100013530, symSize: 0x34 }
  - { offsetInCU: 0x21BAF, offset: 0x21BAF, size: 0x8, addend: 0x0, symName: __ZNSt3__16vectorIP4menuNS_9allocatorIS2_EEEC2B8ue170006Ev, symObjAddr: 0x12814, symBinAddr: 0x100013564, symSize: 0x44 }
  - { offsetInCU: 0x21BD9, offset: 0x21BD9, size: 0x8, addend: 0x0, symName: __ZNSt3__117__compressed_pairIPP4menuNS_9allocatorIS2_EEEC1B8ue170006IDnNS_18__default_init_tagEEEOT_OT0_, symObjAddr: 0x12858, symBinAddr: 0x1000135A8, symSize: 0x3C }
  - { offsetInCU: 0x21C31, offset: 0x21C31, size: 0x8, addend: 0x0, symName: __ZNSt3__117__compressed_pairIPP4menuNS_9allocatorIS2_EEEC2B8ue170006IDnNS_18__default_init_tagEEEOT_OT0_, symObjAddr: 0x12894, symBinAddr: 0x1000135E4, symSize: 0x40 }
  - { offsetInCU: 0x21C89, offset: 0x21C89, size: 0x8, addend: 0x0, symName: __ZNSt3__122__compressed_pair_elemIPP4menuLi0ELb0EEC2B8ue170006IDnvEEOT_, symObjAddr: 0x128D4, symBinAddr: 0x100013624, symSize: 0x1C }
  - { offsetInCU: 0x21CCB, offset: 0x21CCB, size: 0x8, addend: 0x0, symName: __ZNSt3__122__compressed_pair_elemINS_9allocatorIP4menuEELi1ELb1EEC2B8ue170006ENS_18__default_init_tagE, symObjAddr: 0x128F0, symBinAddr: 0x100013640, symSize: 0x2C }
  - { offsetInCU: 0x21CFF, offset: 0x21CFF, size: 0x8, addend: 0x0, symName: __ZNSt3__19allocatorIP4menuEC2B8ue170006Ev, symObjAddr: 0x1291C, symBinAddr: 0x10001366C, symSize: 0x2C }
  - { offsetInCU: 0x21D29, offset: 0x21D29, size: 0x8, addend: 0x0, symName: __ZNSt3__116__non_trivial_ifILb1ENS_9allocatorIP4menuEEEC2B8ue170006Ev, symObjAddr: 0x12948, symBinAddr: 0x100013698, symSize: 0x14 }
  - { offsetInCU: 0x21D53, offset: 0x21D53, size: 0x8, addend: 0x0, symName: __ZNKSt3__16vectorIP4menuNS_9allocatorIS2_EEE5beginB8ue170006Ev, symObjAddr: 0x1295C, symBinAddr: 0x1000136AC, symSize: 0x30 }
  - { offsetInCU: 0x21D7B, offset: 0x21D7B, size: 0x8, addend: 0x0, symName: __ZNKSt3__16vectorIP4menuNS_9allocatorIS2_EEE3endB8ue170006Ev, symObjAddr: 0x1298C, symBinAddr: 0x1000136DC, symSize: 0x30 }
  - { offsetInCU: 0x21DA3, offset: 0x21DA3, size: 0x8, addend: 0x0, symName: __ZNKSt3__111__wrap_iterIPKP4menuEdeB8ue170006Ev, symObjAddr: 0x129F0, symBinAddr: 0x100013740, symSize: 0x18 }
  - { offsetInCU: 0x21DC9, offset: 0x21DC9, size: 0x8, addend: 0x0, symName: __ZNSt3__111__wrap_iterIPKP4menuEppB8ue170006Ev, symObjAddr: 0x12A08, symBinAddr: 0x100013758, symSize: 0x20 }
  - { offsetInCU: 0x21DEF, offset: 0x21DEF, size: 0x8, addend: 0x0, symName: __ZNKSt3__16vectorIP4menuNS_9allocatorIS2_EEE11__make_iterB8ue170006EPKS2_, symObjAddr: 0x12A28, symBinAddr: 0x100013778, symSize: 0x30 }
  - { offsetInCU: 0x21E24, offset: 0x21E24, size: 0x8, addend: 0x0, symName: __ZNSt3__111__wrap_iterIPKP4menuEC1B8ue170006ES4_, symObjAddr: 0x12A58, symBinAddr: 0x1000137A8, symSize: 0x34 }
  - { offsetInCU: 0x21E5C, offset: 0x21E5C, size: 0x8, addend: 0x0, symName: __ZNSt3__111__wrap_iterIPKP4menuEC2B8ue170006ES4_, symObjAddr: 0x12A8C, symBinAddr: 0x1000137DC, symSize: 0x20 }
  - { offsetInCU: 0x21E94, offset: 0x21E94, size: 0x8, addend: 0x0, symName: __ZNKSt3__111__wrap_iterIPKP4menuE4baseB8ue170006Ev, symObjAddr: 0x12AF4, symBinAddr: 0x100013844, symSize: 0x18 }
  - { offsetInCU: 0x21EBA, offset: 0x21EBA, size: 0x8, addend: 0x0, symName: __ZNKSt3__16vectorIP4menuNS_9allocatorIS2_EEEixB8ue170006Em, symObjAddr: 0x12B0C, symBinAddr: 0x10001385C, symSize: 0x24 }
  - { offsetInCU: 0x21EF1, offset: 0x21EF1, size: 0x8, addend: 0x0, symName: __ZNSt3__16vectorIP4menuNS_9allocatorIS2_EEEC1ERKS5_, symObjAddr: 0x12B30, symBinAddr: 0x100013880, symSize: 0x34 }
  - { offsetInCU: 0x21F2C, offset: 0x21F2C, size: 0x8, addend: 0x0, symName: __ZNSt3__16vectorIP4menuNS_9allocatorIS2_EEEC2ERKS5_, symObjAddr: 0x12B64, symBinAddr: 0x1000138B4, symSize: 0x94 }
  - { offsetInCU: 0x21F71, offset: 0x21F71, size: 0x8, addend: 0x0, symName: __ZNSt3__116allocator_traitsINS_9allocatorIP4menuEEE37select_on_container_copy_constructionB8ue170006IS4_vvEES4_RKS4_, symObjAddr: 0x12BF8, symBinAddr: 0x100013948, symSize: 0x10 }
  - { offsetInCU: 0x21FA0, offset: 0x21FA0, size: 0x8, addend: 0x0, symName: __ZNKSt3__16vectorIP4menuNS_9allocatorIS2_EEE7__allocB8ue170006Ev, symObjAddr: 0x12C08, symBinAddr: 0x100013958, symSize: 0x28 }
  - { offsetInCU: 0x21FCC, offset: 0x21FCC, size: 0x8, addend: 0x0, symName: __ZNSt3__117__compressed_pairIPP4menuNS_9allocatorIS2_EEEC1B8ue170006IDnS5_EEOT_OT0_, symObjAddr: 0x12C30, symBinAddr: 0x100013980, symSize: 0x3C }
  - { offsetInCU: 0x22024, offset: 0x22024, size: 0x8, addend: 0x0, symName: __ZNSt3__16vectorIP4menuNS_9allocatorIS2_EEE16__init_with_sizeB8ue170006IPS2_S7_EEvT_T0_m, symObjAddr: 0x12C6C, symBinAddr: 0x1000139BC, symSize: 0xC0 }
  - { offsetInCU: 0x22098, offset: 0x22098, size: 0x8, addend: 0x0, symName: __ZNKSt3__117__compressed_pairIPP4menuNS_9allocatorIS2_EEE6secondB8ue170006Ev, symObjAddr: 0x12D2C, symBinAddr: 0x100013A7C, symSize: 0x24 }
  - { offsetInCU: 0x220BE, offset: 0x220BE, size: 0x8, addend: 0x0, symName: __ZNKSt3__122__compressed_pair_elemINS_9allocatorIP4menuEELi1ELb1EE5__getB8ue170006Ev, symObjAddr: 0x12D50, symBinAddr: 0x100013AA0, symSize: 0x14 }
  - { offsetInCU: 0x220E4, offset: 0x220E4, size: 0x8, addend: 0x0, symName: __ZNSt3__117__compressed_pairIPP4menuNS_9allocatorIS2_EEEC2B8ue170006IDnS5_EEOT_OT0_, symObjAddr: 0x12D64, symBinAddr: 0x100013AB4, symSize: 0x44 }
  - { offsetInCU: 0x2213C, offset: 0x2213C, size: 0x8, addend: 0x0, symName: __ZNSt3__122__compressed_pair_elemINS_9allocatorIP4menuEELi1ELb1EEC2B8ue170006IS4_vEEOT_, symObjAddr: 0x12DA8, symBinAddr: 0x100013AF8, symSize: 0x18 }
  - { offsetInCU: 0x2217E, offset: 0x2217E, size: 0x8, addend: 0x0, symName: __ZNSt3__16vectorIP4menuNS_9allocatorIS2_EEE11__vallocateB8ue170006Em, symObjAddr: 0x12E00, symBinAddr: 0x100013B50, symSize: 0xAC }
  - { offsetInCU: 0x221C2, offset: 0x221C2, size: 0x8, addend: 0x0, symName: __ZNSt3__16vectorIP4menuNS_9allocatorIS2_EEE18__construct_at_endIPS2_S7_EEvT_T0_m, symObjAddr: 0x12EAC, symBinAddr: 0x100013BFC, symSize: 0x94 }
  - { offsetInCU: 0x22238, offset: 0x22238, size: 0x8, addend: 0x0, symName: __ZNSt3__128__exception_guard_exceptionsINS_6vectorIP4menuNS_9allocatorIS3_EEE16__destroy_vectorEE10__completeB8ue170006Ev, symObjAddr: 0x12F40, symBinAddr: 0x100013C90, symSize: 0x1C }
  - { offsetInCU: 0x2225E, offset: 0x2225E, size: 0x8, addend: 0x0, symName: __ZNSt3__128__exception_guard_exceptionsINS_6vectorIP4menuNS_9allocatorIS3_EEE16__destroy_vectorEED1B8ue170006Ev, symObjAddr: 0x12F5C, symBinAddr: 0x100013CAC, symSize: 0x2C }
  - { offsetInCU: 0x22288, offset: 0x22288, size: 0x8, addend: 0x0, symName: __ZNSt3__128__exception_guard_exceptionsINS_6vectorIP4menuNS_9allocatorIS3_EEE16__destroy_vectorEEC1B8ue170006ES7_, symObjAddr: 0x12F88, symBinAddr: 0x100013CD8, symSize: 0x34 }
  - { offsetInCU: 0x222C0, offset: 0x222C0, size: 0x8, addend: 0x0, symName: __ZNSt3__128__exception_guard_exceptionsINS_6vectorIP4menuNS_9allocatorIS3_EEE16__destroy_vectorEEC2B8ue170006ES7_, symObjAddr: 0x12FBC, symBinAddr: 0x100013D0C, symSize: 0x24 }
  - { offsetInCU: 0x222F8, offset: 0x222F8, size: 0x8, addend: 0x0, symName: __ZNKSt3__16vectorIP4menuNS_9allocatorIS2_EEE8max_sizeEv, symObjAddr: 0x12FE0, symBinAddr: 0x100013D30, symSize: 0x74 }
  - { offsetInCU: 0x22320, offset: 0x22320, size: 0x8, addend: 0x0, symName: __ZNKSt3__16vectorIP4menuNS_9allocatorIS2_EEE20__throw_length_errorB8ue170006Ev, symObjAddr: 0x13054, symBinAddr: 0x100013DA4, symSize: 0x1C }
  - { offsetInCU: 0x22346, offset: 0x22346, size: 0x8, addend: 0x0, symName: __ZNSt3__16vectorIP4menuNS_9allocatorIS2_EEE9__end_capB8ue170006Ev, symObjAddr: 0x130B0, symBinAddr: 0x100013E00, symSize: 0x28 }
  - { offsetInCU: 0x2236C, offset: 0x2236C, size: 0x8, addend: 0x0, symName: __ZNKSt3__16vectorIP4menuNS_9allocatorIS2_EEE14__annotate_newB8ue170006Em, symObjAddr: 0x130D8, symBinAddr: 0x100013E28, symSize: 0xAC }
  - { offsetInCU: 0x223A1, offset: 0x223A1, size: 0x8, addend: 0x0, symName: __ZNSt3__116allocator_traitsINS_9allocatorIP4menuEEE8max_sizeB8ue170006IS4_vEEmRKS4_, symObjAddr: 0x13184, symBinAddr: 0x100013ED4, symSize: 0x24 }
  - { offsetInCU: 0x223CF, offset: 0x223CF, size: 0x8, addend: 0x0, symName: __ZNKSt3__19allocatorIP4menuE8max_sizeB8ue170006Ev, symObjAddr: 0x131A8, symBinAddr: 0x100013EF8, symSize: 0x14 }
  - { offsetInCU: 0x223F5, offset: 0x223F5, size: 0x8, addend: 0x0, symName: __ZNSt3__19allocatorIP4menuE8allocateB8ue170006Em, symObjAddr: 0x131BC, symBinAddr: 0x100013F0C, symSize: 0x84 }
  - { offsetInCU: 0x22429, offset: 0x22429, size: 0x8, addend: 0x0, symName: __ZNSt3__117__compressed_pairIPP4menuNS_9allocatorIS2_EEE5firstB8ue170006Ev, symObjAddr: 0x13240, symBinAddr: 0x100013F90, symSize: 0x24 }
  - { offsetInCU: 0x2244F, offset: 0x2244F, size: 0x8, addend: 0x0, symName: __ZNSt3__122__compressed_pair_elemIPP4menuLi0ELb0EE5__getB8ue170006Ev, symObjAddr: 0x13264, symBinAddr: 0x100013FB4, symSize: 0x14 }
  - { offsetInCU: 0x2248E, offset: 0x2248E, size: 0x8, addend: 0x0, symName: __ZNSt3__16vectorIP4menuNS_9allocatorIS2_EEE21_ConstructTransactionC1B8ue170006ERS5_m, symObjAddr: 0x13278, symBinAddr: 0x100013FC8, symSize: 0x3C }
  - { offsetInCU: 0x224D6, offset: 0x224D6, size: 0x8, addend: 0x0, symName: __ZNSt3__16vectorIP4menuNS_9allocatorIS2_EEE21_ConstructTransactionD1B8ue170006Ev, symObjAddr: 0x13334, symBinAddr: 0x100014084, symSize: 0x2C }
  - { offsetInCU: 0x22500, offset: 0x22500, size: 0x8, addend: 0x0, symName: __ZNSt3__16vectorIP4menuNS_9allocatorIS2_EEE21_ConstructTransactionC2B8ue170006ERS5_m, symObjAddr: 0x13360, symBinAddr: 0x1000140B0, symSize: 0x44 }
  - { offsetInCU: 0x22562, offset: 0x22562, size: 0x8, addend: 0x0, symName: __ZNSt3__14pairIPP4menuS3_EC1B8ue170006ERKS3_S6_, symObjAddr: 0x135AC, symBinAddr: 0x1000142FC, symSize: 0x3C }
  - { offsetInCU: 0x225A8, offset: 0x225A8, size: 0x8, addend: 0x0, symName: __ZNSt3__14pairIPP4menuS3_EC2B8ue170006ERKS3_S6_, symObjAddr: 0x135E8, symBinAddr: 0x100014338, symSize: 0x34 }
  - { offsetInCU: 0x225EE, offset: 0x225EE, size: 0x8, addend: 0x0, symName: __ZNSt3__129_AllocatorDestroyRangeReverseINS_9allocatorIP4menuEEPS3_EC1B8ue170006ERS4_RS5_S8_, symObjAddr: 0x13668, symBinAddr: 0x1000143B8, symSize: 0x44 }
  - { offsetInCU: 0x22645, offset: 0x22645, size: 0x8, addend: 0x0, symName: __ZNSt3__116allocator_traitsINS_9allocatorIP4menuEEE9constructB8ue170006IS3_JRS3_EvEEvRS4_PT_DpOT0_, symObjAddr: 0x136AC, symBinAddr: 0x1000143FC, symSize: 0x34 }
  - { offsetInCU: 0x2269C, offset: 0x2269C, size: 0x8, addend: 0x0, symName: __ZNSt3__128__exception_guard_exceptionsINS_29_AllocatorDestroyRangeReverseINS_9allocatorIP4menuEEPS4_EEE10__completeB8ue170006Ev, symObjAddr: 0x136E0, symBinAddr: 0x100014430, symSize: 0x1C }
  - { offsetInCU: 0x226C2, offset: 0x226C2, size: 0x8, addend: 0x0, symName: __ZNSt3__128__exception_guard_exceptionsINS_29_AllocatorDestroyRangeReverseINS_9allocatorIP4menuEEPS4_EEED1B8ue170006Ev, symObjAddr: 0x136FC, symBinAddr: 0x10001444C, symSize: 0x2C }
  - { offsetInCU: 0x226EC, offset: 0x226EC, size: 0x8, addend: 0x0, symName: __ZNSt3__128__exception_guard_exceptionsINS_29_AllocatorDestroyRangeReverseINS_9allocatorIP4menuEEPS4_EEEC1B8ue170006ES7_, symObjAddr: 0x13728, symBinAddr: 0x100014478, symSize: 0x34 }
  - { offsetInCU: 0x22725, offset: 0x22725, size: 0x8, addend: 0x0, symName: __ZNSt3__128__exception_guard_exceptionsINS_29_AllocatorDestroyRangeReverseINS_9allocatorIP4menuEEPS4_EEEC2B8ue170006ES7_, symObjAddr: 0x1375C, symBinAddr: 0x1000144AC, symSize: 0x30 }
  - { offsetInCU: 0x2275E, offset: 0x2275E, size: 0x8, addend: 0x0, symName: __ZNSt3__129_AllocatorDestroyRangeReverseINS_9allocatorIP4menuEEPS3_EC2B8ue170006ERS4_RS5_S8_, symObjAddr: 0x1378C, symBinAddr: 0x1000144DC, symSize: 0x38 }
  - { offsetInCU: 0x227B5, offset: 0x227B5, size: 0x8, addend: 0x0, symName: __ZNSt3__19allocatorIP4menuE9constructB8ue170006IS2_JRS2_EEEvPT_DpOT0_, symObjAddr: 0x137C4, symBinAddr: 0x100014514, symSize: 0x28 }
  - { offsetInCU: 0x2280B, offset: 0x2280B, size: 0x8, addend: 0x0, symName: __ZNSt3__128__exception_guard_exceptionsINS_29_AllocatorDestroyRangeReverseINS_9allocatorIP4menuEEPS4_EEED2B8ue170006Ev, symObjAddr: 0x137EC, symBinAddr: 0x10001453C, symSize: 0x48 }
  - { offsetInCU: 0x22835, offset: 0x22835, size: 0x8, addend: 0x0, symName: __ZNKSt3__129_AllocatorDestroyRangeReverseINS_9allocatorIP4menuEEPS3_EclB8ue170006Ev, symObjAddr: 0x13834, symBinAddr: 0x100014584, symSize: 0x68 }
  - { offsetInCU: 0x2285B, offset: 0x2285B, size: 0x8, addend: 0x0, symName: __ZNSt3__116reverse_iteratorIPP4menuEC1B8ue170006ES3_, symObjAddr: 0x1390C, symBinAddr: 0x10001465C, symSize: 0x34 }
  - { offsetInCU: 0x22893, offset: 0x22893, size: 0x8, addend: 0x0, symName: __ZNSt3__116reverse_iteratorIPP4menuEppB8ue170006Ev, symObjAddr: 0x139AC, symBinAddr: 0x1000146FC, symSize: 0x20 }
  - { offsetInCU: 0x228B9, offset: 0x228B9, size: 0x8, addend: 0x0, symName: __ZNKSt3__116reverse_iteratorIPP4menuE4baseB8ue170006Ev, symObjAddr: 0x139CC, symBinAddr: 0x10001471C, symSize: 0x18 }
  - { offsetInCU: 0x228E4, offset: 0x228E4, size: 0x8, addend: 0x0, symName: __ZNSt3__119__to_address_helperINS_16reverse_iteratorIPP4menuEEvE6__callB8ue170006ERKS5_, symObjAddr: 0x139E4, symBinAddr: 0x100014734, symSize: 0x4C }
  - { offsetInCU: 0x22907, offset: 0x22907, size: 0x8, addend: 0x0, symName: __ZNKSt3__116reverse_iteratorIPP4menuEptB8ue170006Ev, symObjAddr: 0x13A30, symBinAddr: 0x100014780, symSize: 0x24 }
  - { offsetInCU: 0x2292D, offset: 0x2292D, size: 0x8, addend: 0x0, symName: __ZNKSt3__116reverse_iteratorIPP4menuEdeB8ue170006Ev, symObjAddr: 0x13A54, symBinAddr: 0x1000147A4, symSize: 0x28 }
  - { offsetInCU: 0x22961, offset: 0x22961, size: 0x8, addend: 0x0, symName: __ZNSt3__116reverse_iteratorIPP4menuEC2B8ue170006ES3_, symObjAddr: 0x13A7C, symBinAddr: 0x1000147CC, symSize: 0x28 }
  - { offsetInCU: 0x22999, offset: 0x22999, size: 0x8, addend: 0x0, symName: __ZNSt3__118__unwrap_iter_implIPP4menuLb1EE8__unwrapB8ue170006ES3_, symObjAddr: 0x13AA4, symBinAddr: 0x1000147F4, symSize: 0x24 }
  - { offsetInCU: 0x229BC, offset: 0x229BC, size: 0x8, addend: 0x0, symName: __ZNSt3__118__unwrap_iter_implIPP4menuLb1EE8__rewrapB8ue170006ES3_S3_, symObjAddr: 0x13AC8, symBinAddr: 0x100014818, symSize: 0x50 }
  - { offsetInCU: 0x229ED, offset: 0x229ED, size: 0x8, addend: 0x0, symName: __ZNSt3__16vectorIP4menuNS_9allocatorIS2_EEE21_ConstructTransactionD2B8ue170006Ev, symObjAddr: 0x13B18, symBinAddr: 0x100014868, symSize: 0x20 }
  - { offsetInCU: 0x22A17, offset: 0x22A17, size: 0x8, addend: 0x0, symName: __ZNSt3__128__exception_guard_exceptionsINS_6vectorIP4menuNS_9allocatorIS3_EEE16__destroy_vectorEED2B8ue170006Ev, symObjAddr: 0x13B38, symBinAddr: 0x100014888, symSize: 0x48 }
  - { offsetInCU: 0x22A41, offset: 0x22A41, size: 0x8, addend: 0x0, symName: __ZNSt3__16vectorIP4menuNS_9allocatorIS2_EEE9push_backB8ue170006ERKS2_, symObjAddr: 0x13B80, symBinAddr: 0x1000148D0, symSize: 0x6C }
  - { offsetInCU: 0x22A78, offset: 0x22A78, size: 0x8, addend: 0x0, symName: __ZNSt3__16vectorIP4menuNS_9allocatorIS2_EEE22__construct_one_at_endB8ue170006IJRKS2_EEEvDpOT_, symObjAddr: 0x13BEC, symBinAddr: 0x10001493C, symSize: 0x98 }
  - { offsetInCU: 0x22AC7, offset: 0x22AC7, size: 0x8, addend: 0x0, symName: __ZNSt3__16vectorIP4menuNS_9allocatorIS2_EEE21__push_back_slow_pathIRKS2_EEvOT_, symObjAddr: 0x13C84, symBinAddr: 0x1000149D4, symSize: 0xE0 }
  - { offsetInCU: 0x22B25, offset: 0x22B25, size: 0x8, addend: 0x0, symName: __ZNSt3__116allocator_traitsINS_9allocatorIP4menuEEE9constructB8ue170006IS3_JRKS3_EvEEvRS4_PT_DpOT0_, symObjAddr: 0x13D64, symBinAddr: 0x100014AB4, symSize: 0x34 }
  - { offsetInCU: 0x22B7C, offset: 0x22B7C, size: 0x8, addend: 0x0, symName: __ZNSt3__19allocatorIP4menuE9constructB8ue170006IS2_JRKS2_EEEvPT_DpOT0_, symObjAddr: 0x13D98, symBinAddr: 0x100014AE8, symSize: 0x28 }
  - { offsetInCU: 0x22BD2, offset: 0x22BD2, size: 0x8, addend: 0x0, symName: __ZNKSt3__16vectorIP4menuNS_9allocatorIS2_EEE11__recommendB8ue170006Em, symObjAddr: 0x13DC0, symBinAddr: 0x100014B10, symSize: 0xB4 }
  - { offsetInCU: 0x22C27, offset: 0x22C27, size: 0x8, addend: 0x0, symName: __ZNSt3__114__split_bufferIP4menuRNS_9allocatorIS2_EEEC1EmmS5_, symObjAddr: 0x13E74, symBinAddr: 0x100014BC4, symSize: 0x44 }
  - { offsetInCU: 0x22C7D, offset: 0x22C7D, size: 0x8, addend: 0x0, symName: __ZNSt3__114__split_bufferIP4menuRNS_9allocatorIS2_EEED1Ev, symObjAddr: 0x13FC8, symBinAddr: 0x100014D18, symSize: 0x2C }
  - { offsetInCU: 0x22CA9, offset: 0x22CA9, size: 0x8, addend: 0x0, symName: __ZNSt3__114__split_bufferIP4menuRNS_9allocatorIS2_EEEC2EmmS5_, symObjAddr: 0x13FF4, symBinAddr: 0x100014D44, symSize: 0xD4 }
  - { offsetInCU: 0x22D1C, offset: 0x22D1C, size: 0x8, addend: 0x0, symName: __ZNSt3__117__compressed_pairIPP4menuRNS_9allocatorIS2_EEEC1B8ue170006IDnS6_EEOT_OT0_, symObjAddr: 0x140C8, symBinAddr: 0x100014E18, symSize: 0x3C }
  - { offsetInCU: 0x22D74, offset: 0x22D74, size: 0x8, addend: 0x0, symName: __ZNSt3__114__split_bufferIP4menuRNS_9allocatorIS2_EEE7__allocB8ue170006Ev, symObjAddr: 0x14104, symBinAddr: 0x100014E54, symSize: 0x28 }
  - { offsetInCU: 0x22D9A, offset: 0x22D9A, size: 0x8, addend: 0x0, symName: __ZNSt3__114__split_bufferIP4menuRNS_9allocatorIS2_EEE9__end_capB8ue170006Ev, symObjAddr: 0x1412C, symBinAddr: 0x100014E7C, symSize: 0x28 }
  - { offsetInCU: 0x22DC0, offset: 0x22DC0, size: 0x8, addend: 0x0, symName: __ZNSt3__117__compressed_pairIPP4menuRNS_9allocatorIS2_EEEC2B8ue170006IDnS6_EEOT_OT0_, symObjAddr: 0x14154, symBinAddr: 0x100014EA4, symSize: 0x48 }
  - { offsetInCU: 0x22E18, offset: 0x22E18, size: 0x8, addend: 0x0, symName: __ZNSt3__122__compressed_pair_elemIRNS_9allocatorIP4menuEELi1ELb0EEC2B8ue170006IS5_vEEOT_, symObjAddr: 0x1419C, symBinAddr: 0x100014EEC, symSize: 0x20 }
  - { offsetInCU: 0x22E5A, offset: 0x22E5A, size: 0x8, addend: 0x0, symName: __ZNSt3__117__compressed_pairIPP4menuRNS_9allocatorIS2_EEE6secondB8ue170006Ev, symObjAddr: 0x141BC, symBinAddr: 0x100014F0C, symSize: 0x28 }
  - { offsetInCU: 0x22E80, offset: 0x22E80, size: 0x8, addend: 0x0, symName: __ZNSt3__122__compressed_pair_elemIRNS_9allocatorIP4menuEELi1ELb0EE5__getB8ue170006Ev, symObjAddr: 0x141E4, symBinAddr: 0x100014F34, symSize: 0x18 }
  - { offsetInCU: 0x22EA6, offset: 0x22EA6, size: 0x8, addend: 0x0, symName: __ZNSt3__117__compressed_pairIPP4menuRNS_9allocatorIS2_EEE5firstB8ue170006Ev, symObjAddr: 0x141FC, symBinAddr: 0x100014F4C, symSize: 0x24 }
  - { offsetInCU: 0x22EE6, offset: 0x22EE6, size: 0x8, addend: 0x0, symName: __ZNKSt3__111__move_loopINS_17_ClassicAlgPolicyEEclB8ue170006INS_16reverse_iteratorIPP4menuEES8_S8_EENS_4pairIT_T1_EESA_T0_SB_, symObjAddr: 0x14660, symBinAddr: 0x1000153B0, symSize: 0xA0 }
  - { offsetInCU: 0x22F57, offset: 0x22F57, size: 0x8, addend: 0x0, symName: __ZNSt3__18_IterOpsINS_17_ClassicAlgPolicyEE11__iter_moveB8ue170006IRNS_16reverse_iteratorIPP4menuEEEENS_9enable_ifIXsr12is_referenceIDTdeclsr3stdE7declvalIRT_EEEEE5valueEDTclsr3stdE4movedeclsr3stdE7declvalISC_EEEEE4typeEOSB_, symObjAddr: 0x14860, symBinAddr: 0x1000155B0, symSize: 0x28 }
  - { offsetInCU: 0x22F83, offset: 0x22F83, size: 0x8, addend: 0x0, symName: __ZNSt3__18_IterOpsINS_17_ClassicAlgPolicyEE25__validate_iter_referenceB8ue170006IRNS_16reverse_iteratorIPP4menuEEEEvv, symObjAddr: 0x14888, symBinAddr: 0x1000155D8, symSize: 0x4 }
  - { offsetInCU: 0x22FA1, offset: 0x22FA1, size: 0x8, addend: 0x0, symName: __ZNSt3__118__unwrap_iter_implINS_16reverse_iteratorIPP4menuEELb0EE8__unwrapB8ue170006ES5_, symObjAddr: 0x1488C, symBinAddr: 0x1000155DC, symSize: 0x24 }
  - { offsetInCU: 0x22FC4, offset: 0x22FC4, size: 0x8, addend: 0x0, symName: __ZNSt3__14pairINS_16reverse_iteratorIPP4menuEES5_EC1B8ue170006ERKS5_S8_, symObjAddr: 0x148B0, symBinAddr: 0x100015600, symSize: 0x3C }
  - { offsetInCU: 0x2300A, offset: 0x2300A, size: 0x8, addend: 0x0, symName: __ZNSt3__14pairINS_16reverse_iteratorIPP4menuEES5_EC2B8ue170006ERKS5_S8_, symObjAddr: 0x148EC, symBinAddr: 0x10001563C, symSize: 0x34 }
  - { offsetInCU: 0x23050, offset: 0x23050, size: 0x8, addend: 0x0, symName: __ZNSt3__118__unwrap_iter_implINS_16reverse_iteratorIPP4menuEELb0EE8__rewrapB8ue170006ES5_S5_, symObjAddr: 0x14920, symBinAddr: 0x100015670, symSize: 0x2C }
  - { offsetInCU: 0x2307D, offset: 0x2307D, size: 0x8, addend: 0x0, symName: __ZNSt3__114__split_bufferIP4menuRNS_9allocatorIS2_EEED2Ev, symObjAddr: 0x1494C, symBinAddr: 0x10001569C, symSize: 0x80 }
  - { offsetInCU: 0x230A9, offset: 0x230A9, size: 0x8, addend: 0x0, symName: __ZNSt3__114__split_bufferIP4menuRNS_9allocatorIS2_EEE5clearB8ue170006Ev, symObjAddr: 0x149CC, symBinAddr: 0x10001571C, symSize: 0x28 }
  - { offsetInCU: 0x230CF, offset: 0x230CF, size: 0x8, addend: 0x0, symName: __ZNKSt3__114__split_bufferIP4menuRNS_9allocatorIS2_EEE8capacityB8ue170006Ev, symObjAddr: 0x149F4, symBinAddr: 0x100015744, symSize: 0x40 }
  - { offsetInCU: 0x230F5, offset: 0x230F5, size: 0x8, addend: 0x0, symName: __ZNSt3__114__split_bufferIP4menuRNS_9allocatorIS2_EEE17__destruct_at_endB8ue170006EPS2_, symObjAddr: 0x14A34, symBinAddr: 0x100015784, symSize: 0x2C }
  - { offsetInCU: 0x23129, offset: 0x23129, size: 0x8, addend: 0x0, symName: __ZNSt3__114__split_bufferIP4menuRNS_9allocatorIS2_EEE17__destruct_at_endB8ue170006EPS2_NS_17integral_constantIbLb0EEE, symObjAddr: 0x14A60, symBinAddr: 0x1000157B0, symSize: 0x94 }
  - { offsetInCU: 0x23169, offset: 0x23169, size: 0x8, addend: 0x0, symName: __ZNKSt3__114__split_bufferIP4menuRNS_9allocatorIS2_EEE9__end_capB8ue170006Ev, symObjAddr: 0x14AF4, symBinAddr: 0x100015844, symSize: 0x28 }
  - { offsetInCU: 0x2318F, offset: 0x2318F, size: 0x8, addend: 0x0, symName: __ZNKSt3__117__compressed_pairIPP4menuRNS_9allocatorIS2_EEE5firstB8ue170006Ev, symObjAddr: 0x14B1C, symBinAddr: 0x10001586C, symSize: 0x24 }
  - { offsetInCU: 0x231B5, offset: 0x231B5, size: 0x8, addend: 0x0, symName: __ZN5store12formatReviewEv, symObjAddr: 0x14B40, symBinAddr: 0x100015890, symSize: 0x94 }
  - { offsetInCU: 0x231E9, offset: 0x231E9, size: 0x8, addend: 0x0, symName: __ZNSt3__112basic_stringIcNS_11char_traitsIcEENS_9allocatorIcEEE4backB8ue170006Ev, symObjAddr: 0x14BD4, symBinAddr: 0x100015924, symSize: 0x48 }
  - { offsetInCU: 0x2320F, offset: 0x2320F, size: 0x8, addend: 0x0, symName: __ZNSt3__112basic_stringIcNS_11char_traitsIcEENS_9allocatorIcEEE8pop_backB8ue170006Ev, symObjAddr: 0x14C1C, symBinAddr: 0x10001596C, symSize: 0x38 }
  - { offsetInCU: 0x23237, offset: 0x23237, size: 0x8, addend: 0x0, symName: __ZNSt3__112basic_stringIcNS_11char_traitsIcEENS_9allocatorIcEEE5frontB8ue170006Ev, symObjAddr: 0x14C54, symBinAddr: 0x1000159A4, symSize: 0x24 }
  - { offsetInCU: 0x2325D, offset: 0x2325D, size: 0x8, addend: 0x0, symName: __ZNSt3__112basic_stringIcNS_11char_traitsIcEENS_9allocatorIcEEE5beginB8ue170006Ev, symObjAddr: 0x14CB4, symBinAddr: 0x100015A04, symSize: 0x60 }
  - { offsetInCU: 0x23283, offset: 0x23283, size: 0x8, addend: 0x0, symName: __ZNSt3__112basic_stringIcNS_11char_traitsIcEENS_9allocatorIcEEE3endB8ue170006Ev, symObjAddr: 0x14D14, symBinAddr: 0x100015A64, symSize: 0x54 }
  - { offsetInCU: 0x233E3, offset: 0x233E3, size: 0x8, addend: 0x0, symName: __ZN14restaurantMenuC1ENSt3__112basic_stringIcNS0_11char_traitsIcEENS0_9allocatorIcEEEES6_, symObjAddr: 0x14D68, symBinAddr: 0x100015AB8, symSize: 0x3C }
  - { offsetInCU: 0x2342B, offset: 0x2342B, size: 0x8, addend: 0x0, symName: __ZNSt3__112basic_stringIcNS_11char_traitsIcEENS_9allocatorIcEEE14__erase_to_endB8ue170006Em, symObjAddr: 0x14DA4, symBinAddr: 0x100015AF4, symSize: 0x40 }
  - { offsetInCU: 0x23460, offset: 0x23460, size: 0x8, addend: 0x0, symName: __ZNSt3__112basic_stringIcNS_11char_traitsIcEENS_9allocatorIcEEE19__null_terminate_atB8ue170006EPcm, symObjAddr: 0x14DE4, symBinAddr: 0x100015B34, symSize: 0x50 }
  - { offsetInCU: 0x234A4, offset: 0x234A4, size: 0x8, addend: 0x0, symName: __ZNSt3__112basic_stringIcNS_11char_traitsIcEENS_9allocatorIcEEE10__set_sizeB8ue170006Em, symObjAddr: 0x14E34, symBinAddr: 0x100015B84, symSize: 0x54 }
  - { offsetInCU: 0x234D9, offset: 0x234D9, size: 0x8, addend: 0x0, symName: __ZNSt3__111__wrap_iterIPcEmmB8ue170006Ev, symObjAddr: 0x14FBC, symBinAddr: 0x100015D0C, symSize: 0x20 }
  - { offsetInCU: 0x234FF, offset: 0x234FF, size: 0x8, addend: 0x0, symName: __ZNSt3__18_IterOpsINS_17_ClassicAlgPolicyEE9iter_swapB8ue170006IRNS_11__wrap_iterIPcEES7_EEvOT_OT0_, symObjAddr: 0x14FDC, symBinAddr: 0x100015D2C, symSize: 0x44 }
  - { offsetInCU: 0x23542, offset: 0x23542, size: 0x8, addend: 0x0, symName: __ZNSt3__111__wrap_iterIPcEppB8ue170006Ev, symObjAddr: 0x15020, symBinAddr: 0x100015D70, symSize: 0x20 }
  - { offsetInCU: 0x23568, offset: 0x23568, size: 0x8, addend: 0x0, symName: __ZNKSt3__111__wrap_iterIPcE4baseB8ue170006Ev, symObjAddr: 0x15088, symBinAddr: 0x100015DD8, symSize: 0x18 }
  - { offsetInCU: 0x2358E, offset: 0x2358E, size: 0x8, addend: 0x0, symName: __ZNKSt3__111__wrap_iterIPcEdeB8ue170006Ev, symObjAddr: 0x1512C, symBinAddr: 0x100015E7C, symSize: 0x18 }
  - { offsetInCU: 0x235B4, offset: 0x235B4, size: 0x8, addend: 0x0, symName: __ZNSt3__112basic_stringIcNS_11char_traitsIcEENS_9allocatorIcEEE15__make_iteratorB8ue170006EPc, symObjAddr: 0x15144, symBinAddr: 0x100015E94, symSize: 0x30 }
  - { offsetInCU: 0x235E9, offset: 0x235E9, size: 0x8, addend: 0x0, symName: __ZNSt3__111__wrap_iterIPcEC1B8ue170006ES1_, symObjAddr: 0x15174, symBinAddr: 0x100015EC4, symSize: 0x34 }
  - { offsetInCU: 0x23621, offset: 0x23621, size: 0x8, addend: 0x0, symName: __ZNSt3__111__wrap_iterIPcEC2B8ue170006ES1_, symObjAddr: 0x151A8, symBinAddr: 0x100015EF8, symSize: 0x20 }
  - { offsetInCU: 0x23659, offset: 0x23659, size: 0x8, addend: 0x0, symName: __ZN14restaurantMenuC2ENSt3__112basic_stringIcNS0_11char_traitsIcEENS0_9allocatorIcEEEES6_, symObjAddr: 0x151C8, symBinAddr: 0x100015F18, symSize: 0xD8 }
  - { offsetInCU: 0x236A1, offset: 0x236A1, size: 0x8, addend: 0x0, symName: __ZN4menuC2Ev, symObjAddr: 0x152A0, symBinAddr: 0x100015FF0, symSize: 0x24 }
  - { offsetInCU: 0x236CD, offset: 0x236CD, size: 0x8, addend: 0x0, symName: __ZN14restaurantMenu11formatPriceEv, symObjAddr: 0x152C4, symBinAddr: 0x100016014, symSize: 0x190 }
  - { offsetInCU: 0x2370F, offset: 0x2370F, size: 0x8, addend: 0x0, symName: __ZNK14restaurantMenu11getMenuNameEv, symObjAddr: 0x15454, symBinAddr: 0x1000161A4, symSize: 0x3C }
  - { offsetInCU: 0x23735, offset: 0x23735, size: 0x8, addend: 0x0, symName: __ZNK14restaurantMenu12getMenuPriceEv, symObjAddr: 0x15490, symBinAddr: 0x1000161E0, symSize: 0x3C }
  - { offsetInCU: 0x2375B, offset: 0x2375B, size: 0x8, addend: 0x0, symName: __ZNK14restaurantMenu17getMenuPriceValueEv, symObjAddr: 0x154CC, symBinAddr: 0x10001621C, symSize: 0x18 }
  - { offsetInCU: 0x23781, offset: 0x23781, size: 0x8, addend: 0x0, symName: __ZN14restaurantMenu11setMenuNameENSt3__112basic_stringIcNS0_11char_traitsIcEENS0_9allocatorIcEEEE, symObjAddr: 0x154E4, symBinAddr: 0x100016234, symSize: 0x30 }
  - { offsetInCU: 0x237B6, offset: 0x237B6, size: 0x8, addend: 0x0, symName: __ZN14restaurantMenu12setMenuPriceENSt3__112basic_stringIcNS0_11char_traitsIcEENS0_9allocatorIcEEEE, symObjAddr: 0x15514, symBinAddr: 0x100016264, symSize: 0x30 }
  - { offsetInCU: 0x237EB, offset: 0x237EB, size: 0x8, addend: 0x0, symName: __ZN14restaurantMenu17setMenuPriceValueEi, symObjAddr: 0x15544, symBinAddr: 0x100016294, symSize: 0x20 }
  - { offsetInCU: 0x2381F, offset: 0x2381F, size: 0x8, addend: 0x0, symName: __ZN7stringKC2ENSt3__112basic_stringIcNS0_11char_traitsIcEENS0_9allocatorIcEEEE, symObjAddr: 0x15564, symBinAddr: 0x1000162B4, symSize: 0x70 }
  - { offsetInCU: 0x23858, offset: 0x23858, size: 0x8, addend: 0x0, symName: __ZN7stringK14howManyKoreansEv, symObjAddr: 0x155D4, symBinAddr: 0x100016324, symSize: 0xB8 }
  - { offsetInCU: 0x238CF, offset: 0x238CF, size: 0x8, addend: 0x0, symName: __ZNSt3__18ios_base4setfB8ue170006Ejj, symObjAddr: 0x1568C, symBinAddr: 0x1000163DC, symSize: 0x5C }
  - { offsetInCU: 0x23924, offset: 0x23924, size: 0x8, addend: 0x0, symName: __ZNSt3__18ios_base6unsetfB8ue170006Ej, symObjAddr: 0x156E8, symBinAddr: 0x100016438, symSize: 0x28 }
  - { offsetInCU: 0x2395B, offset: 0x2395B, size: 0x8, addend: 0x0, symName: __ZNSt3__18__iom_t6C1B8ue170006Ei, symObjAddr: 0x15710, symBinAddr: 0x100016460, symSize: 0x34 }
  - { offsetInCU: 0x23993, offset: 0x23993, size: 0x8, addend: 0x0, symName: __ZNSt3__18__iom_t6C2B8ue170006Ei, symObjAddr: 0x15744, symBinAddr: 0x100016494, symSize: 0x20 }
  - { offsetInCU: 0x239CB, offset: 0x239CB, size: 0x8, addend: 0x0, symName: __ZN7stringKD2Ev, symObjAddr: 0x15764, symBinAddr: 0x1000164B4, symSize: 0x2C }
  - { offsetInCU: 0x239F7, offset: 0x239F7, size: 0x8, addend: 0x0, symName: __ZN11StoreVector8setOrderEi, symObjAddr: 0x15790, symBinAddr: 0x1000164E0, symSize: 0x20 }
  - { offsetInCU: 0x23A2B, offset: 0x23A2B, size: 0x8, addend: 0x0, symName: __ZNSt3__16vectorIP10menuVectorNS_9allocatorIS2_EEE6insertENS_11__wrap_iterIPKS2_EERS7_, symObjAddr: 0x157B0, symBinAddr: 0x100016500, symSize: 0x20C }
  - { offsetInCU: 0x23AC2, offset: 0x23AC2, size: 0x8, addend: 0x0, symName: __ZNKSt3__111__wrap_iterIPP10menuVectorEplB8ue170006El, symObjAddr: 0x159BC, symBinAddr: 0x10001670C, symSize: 0x3C }
  - { offsetInCU: 0x23B0E, offset: 0x23B0E, size: 0x8, addend: 0x0, symName: __ZNSt3__111__wrap_iterIPKP10menuVectorEC1B8ue170006IPS2_EERKNS0_IT_EEPNS_9enable_ifIXsr14is_convertibleIS8_S4_EE5valueEvE4typeE, symObjAddr: 0x159F8, symBinAddr: 0x100016748, symSize: 0x3C }
  - { offsetInCU: 0x23B59, offset: 0x23B59, size: 0x8, addend: 0x0, symName: __ZNSt3__16vectorIP10menuVectorNS_9allocatorIS2_EEE12__move_rangeEPS2_S6_S6_, symObjAddr: 0x15A7C, symBinAddr: 0x1000167CC, symSize: 0x134 }
  - { offsetInCU: 0x23C15, offset: 0x23C15, size: 0x8, addend: 0x0, symName: __ZNSt3__114pointer_traitsIPKP10menuVectorE10pointer_toB8ue170006ERS3_, symObjAddr: 0x15BB0, symBinAddr: 0x100016900, symSize: 0x14 }
  - { offsetInCU: 0x23C38, offset: 0x23C38, size: 0x8, addend: 0x0, symName: __ZNSt3__114__split_bufferIP10menuVectorRNS_9allocatorIS2_EEE9push_backB8ue170006ERKS2_, symObjAddr: 0x15BC4, symBinAddr: 0x100016914, symSize: 0x268 }
  - { offsetInCU: 0x23CB0, offset: 0x23CB0, size: 0x8, addend: 0x0, symName: __ZNKSt3__111__wrap_iterIPKP10menuVectorE4baseB8ue170006Ev, symObjAddr: 0x15F78, symBinAddr: 0x100016CC8, symSize: 0x18 }
  - { offsetInCU: 0x23CD6, offset: 0x23CD6, size: 0x8, addend: 0x0, symName: __ZNSt3__116allocator_traitsINS_9allocatorIP10menuVectorEEE9constructB8ue170006IS3_JS3_EvEEvRS4_PT_DpOT0_, symObjAddr: 0x15F90, symBinAddr: 0x100016CE0, symSize: 0x34 }
  - { offsetInCU: 0x23D2D, offset: 0x23D2D, size: 0x8, addend: 0x0, symName: __ZNSt3__19allocatorIP10menuVectorE9constructB8ue170006IS2_JS2_EEEvPT_DpOT0_, symObjAddr: 0x16004, symBinAddr: 0x100016D54, symSize: 0x28 }
  - { offsetInCU: 0x23DA7, offset: 0x23DA7, size: 0x8, addend: 0x0, symName: __ZNKSt3__123__move_backward_trivialclB8ue170006IP10menuVectorS3_Li0EEENS_4pairIPT_PT0_EES6_S6_S8_, symObjAddr: 0x161C8, symBinAddr: 0x100016F18, symSize: 0x48 }
  - { offsetInCU: 0x23E0F, offset: 0x23E0F, size: 0x8, addend: 0x0, symName: __ZNSt3__14pairIPP10menuVectorS3_EC1B8ue170006ERKS3_S6_, symObjAddr: 0x16450, symBinAddr: 0x1000171A0, symSize: 0x3C }
  - { offsetInCU: 0x23E55, offset: 0x23E55, size: 0x8, addend: 0x0, symName: __ZNSt3__14pairIPP10menuVectorS3_EC2B8ue170006ERKS3_S6_, symObjAddr: 0x1648C, symBinAddr: 0x1000171DC, symSize: 0x34 }
  - { offsetInCU: 0x23E9B, offset: 0x23E9B, size: 0x8, addend: 0x0, symName: __ZNSt3__118__unwrap_iter_implIPP10menuVectorLb1EE8__unwrapB8ue170006ES3_, symObjAddr: 0x164C0, symBinAddr: 0x100017210, symSize: 0x24 }
  - { offsetInCU: 0x23EBE, offset: 0x23EBE, size: 0x8, addend: 0x0, symName: __ZNSt3__118__unwrap_iter_implIPP10menuVectorLb1EE8__rewrapB8ue170006ES3_S3_, symObjAddr: 0x164E4, symBinAddr: 0x100017234, symSize: 0x50 }
  - { offsetInCU: 0x23EEF, offset: 0x23EEF, size: 0x8, addend: 0x0, symName: __ZNSt3__114__split_bufferIP10menuVectorRNS_9allocatorIS2_EEE18__construct_at_endINS_13move_iteratorIPS2_EEEENS_9enable_ifIXsr31__has_forward_iterator_categoryIT_EE5valueEvE4typeESC_SC_, symObjAddr: 0x16574, symBinAddr: 0x1000172C4, symSize: 0x60 }
  - { offsetInCU: 0x23F3C, offset: 0x23F3C, size: 0x8, addend: 0x0, symName: __ZNSt3__113move_iteratorIPP10menuVectorEC1B8ue170006ES3_, symObjAddr: 0x165D4, symBinAddr: 0x100017324, symSize: 0x34 }
  - { offsetInCU: 0x23F7E, offset: 0x23F7E, size: 0x8, addend: 0x0, symName: __ZNKSt3__114__move_trivialclB8ue170006IP10menuVectorS3_Li0EEENS_4pairIPT_PT0_EES6_S6_S8_, symObjAddr: 0x16744, symBinAddr: 0x100017494, symSize: 0x48 }
  - { offsetInCU: 0x23FE6, offset: 0x23FE6, size: 0x8, addend: 0x0, symName: __ZNSt3__114__split_bufferIP10menuVectorRNS_9allocatorIS2_EEE28__construct_at_end_with_sizeINS_13move_iteratorIPS2_EEEEvT_m, symObjAddr: 0x16844, symBinAddr: 0x100017594, symSize: 0xE4 }
  - { offsetInCU: 0x2404C, offset: 0x2404C, size: 0x8, addend: 0x0, symName: __ZNSt3__114__split_bufferIP10menuVectorRNS_9allocatorIS2_EEE21_ConstructTransactionC1B8ue170006EPPS2_m, symObjAddr: 0x16964, symBinAddr: 0x1000176B4, symSize: 0x3C }
  - { offsetInCU: 0x24092, offset: 0x24092, size: 0x8, addend: 0x0, symName: __ZNKSt3__113move_iteratorIPP10menuVectorEdeB8ue170006Ev, symObjAddr: 0x169A0, symBinAddr: 0x1000176F0, symSize: 0x18 }
  - { offsetInCU: 0x240B8, offset: 0x240B8, size: 0x8, addend: 0x0, symName: __ZNSt3__113move_iteratorIPP10menuVectorEppB8ue170006Ev, symObjAddr: 0x169B8, symBinAddr: 0x100017708, symSize: 0x20 }
  - { offsetInCU: 0x240DE, offset: 0x240DE, size: 0x8, addend: 0x0, symName: __ZNSt3__114__split_bufferIP10menuVectorRNS_9allocatorIS2_EEE21_ConstructTransactionD1B8ue170006Ev, symObjAddr: 0x169D8, symBinAddr: 0x100017728, symSize: 0x2C }
  - { offsetInCU: 0x24108, offset: 0x24108, size: 0x8, addend: 0x0, symName: __ZNSt3__114__split_bufferIP10menuVectorRNS_9allocatorIS2_EEE21_ConstructTransactionC2B8ue170006EPPS2_m, symObjAddr: 0x16A04, symBinAddr: 0x100017754, symSize: 0x44 }
  - { offsetInCU: 0x2414E, offset: 0x2414E, size: 0x8, addend: 0x0, symName: __ZNSt3__114__split_bufferIP10menuVectorRNS_9allocatorIS2_EEE21_ConstructTransactionD2B8ue170006Ev, symObjAddr: 0x16A48, symBinAddr: 0x100017798, symSize: 0x20 }
  - { offsetInCU: 0x24178, offset: 0x24178, size: 0x8, addend: 0x0, symName: __ZNKSt3__113move_iteratorIPP10menuVectorE4baseB8ue170006Ev, symObjAddr: 0x16AE0, symBinAddr: 0x100017830, symSize: 0x18 }
  - { offsetInCU: 0x2419E, offset: 0x2419E, size: 0x8, addend: 0x0, symName: __ZNSt3__113move_iteratorIPP10menuVectorEC2B8ue170006ES3_, symObjAddr: 0x16AF8, symBinAddr: 0x100017848, symSize: 0x20 }
  - { offsetInCU: 0x241D6, offset: 0x241D6, size: 0x8, addend: 0x0, symName: __ZNSt3__111__wrap_iterIPP10menuVectorEpLB8ue170006El, symObjAddr: 0x16BBC, symBinAddr: 0x10001790C, symSize: 0x28 }
  - { offsetInCU: 0x2420A, offset: 0x2420A, size: 0x8, addend: 0x0, symName: __ZNSt3__111__wrap_iterIPKP10menuVectorEC2B8ue170006IPS2_EERKNS0_IT_EEPNS_9enable_ifIXsr14is_convertibleIS8_S4_EE5valueEvE4typeE, symObjAddr: 0x16BE4, symBinAddr: 0x100017934, symSize: 0x40 }
  - { offsetInCU: 0x24255, offset: 0x24255, size: 0x8, addend: 0x0, symName: __ZN14FunctionalPageI10SignUpPageED2Ev, symObjAddr: 0x16C24, symBinAddr: 0x100017974, symSize: 0x40 }
  - { offsetInCU: 0x24281, offset: 0x24281, size: 0x8, addend: 0x0, symName: __ZN14FunctionalPageI10SignUpPageE7executeEv, symObjAddr: 0x16C64, symBinAddr: 0x1000179B4, symSize: 0x2C }
  - { offsetInCU: 0x242A7, offset: 0x242A7, size: 0x8, addend: 0x0, symName: __ZNK14FunctionalPageI10SignUpPageE7getNameEv, symObjAddr: 0x16C90, symBinAddr: 0x1000179E0, symSize: 0x3C }
  - { offsetInCU: 0x242CD, offset: 0x242CD, size: 0x8, addend: 0x0, symName: __ZN10SignUpPage6actionEv, symObjAddr: 0x16CCC, symBinAddr: 0x100017A1C, symSize: 0x420 }
  - { offsetInCU: 0x24355, offset: 0x24355, size: 0x8, addend: 0x0, symName: __ZNSt16invalid_argumentC1B8ue170006EPKc, symObjAddr: 0x170EC, symBinAddr: 0x100017E3C, symSize: 0x34 }
  - { offsetInCU: 0x2438D, offset: 0x2438D, size: 0x8, addend: 0x0, symName: __ZNSt16invalid_argumentC2B8ue170006EPKc, symObjAddr: 0x17120, symBinAddr: 0x100017E70, symSize: 0x4C }
  - { offsetInCU: 0x243C5, offset: 0x243C5, size: 0x8, addend: 0x0, symName: __ZN14FunctionalPageI10SignInPageED2Ev, symObjAddr: 0x1716C, symBinAddr: 0x100017EBC, symSize: 0x40 }
  - { offsetInCU: 0x243F1, offset: 0x243F1, size: 0x8, addend: 0x0, symName: __ZN14FunctionalPageI10SignInPageE7executeEv, symObjAddr: 0x171AC, symBinAddr: 0x100017EFC, symSize: 0x2C }
  - { offsetInCU: 0x24417, offset: 0x24417, size: 0x8, addend: 0x0, symName: __ZNK14FunctionalPageI10SignInPageE7getNameEv, symObjAddr: 0x171D8, symBinAddr: 0x100017F28, symSize: 0x3C }
  - { offsetInCU: 0x2443D, offset: 0x2443D, size: 0x8, addend: 0x0, symName: __ZN10SignInPage6actionEv, symObjAddr: 0x17214, symBinAddr: 0x100017F64, symSize: 0x350 }
  - { offsetInCU: 0x24480, offset: 0x24480, size: 0x8, addend: 0x0, symName: __ZN14AccountStorage5loginENSt3__112basic_stringIcNS0_11char_traitsIcEENS0_9allocatorIcEEEES6_, symObjAddr: 0x17564, symBinAddr: 0x1000182B4, symSize: 0x118 }
  - { offsetInCU: 0x244D2, offset: 0x244D2, size: 0x8, addend: 0x0, symName: __ZN14AccountStorage4findENSt3__112basic_stringIcNS0_11char_traitsIcEENS0_9allocatorIcEEEES6_, symObjAddr: 0x1767C, symBinAddr: 0x1000183CC, symSize: 0x17C }
  - { offsetInCU: 0x24557, offset: 0x24557, size: 0x8, addend: 0x0, symName: __ZNSt3__16vectorIP7AccountNS_9allocatorIS2_EEE5beginB8ue170006Ev, symObjAddr: 0x177F8, symBinAddr: 0x100018548, symSize: 0x30 }
  - { offsetInCU: 0x2457F, offset: 0x2457F, size: 0x8, addend: 0x0, symName: __ZNSt3__16vectorIP7AccountNS_9allocatorIS2_EEE3endB8ue170006Ev, symObjAddr: 0x17828, symBinAddr: 0x100018578, symSize: 0x30 }
  - { offsetInCU: 0x245A7, offset: 0x245A7, size: 0x8, addend: 0x0, symName: __ZNKSt3__111__wrap_iterIPP7AccountEdeB8ue170006Ev, symObjAddr: 0x1788C, symBinAddr: 0x1000185DC, symSize: 0x18 }
  - { offsetInCU: 0x245CD, offset: 0x245CD, size: 0x8, addend: 0x0, symName: __ZNSt3__111__wrap_iterIPP7AccountEppB8ue170006Ev, symObjAddr: 0x178A4, symBinAddr: 0x1000185F4, symSize: 0x20 }
  - { offsetInCU: 0x245F3, offset: 0x245F3, size: 0x8, addend: 0x0, symName: __ZNSt3__16vectorIP7AccountNS_9allocatorIS2_EEE11__make_iterB8ue170006EPS2_, symObjAddr: 0x178C4, symBinAddr: 0x100018614, symSize: 0x30 }
  - { offsetInCU: 0x24628, offset: 0x24628, size: 0x8, addend: 0x0, symName: __ZNSt3__111__wrap_iterIPP7AccountEC1B8ue170006ES3_, symObjAddr: 0x178F4, symBinAddr: 0x100018644, symSize: 0x34 }
  - { offsetInCU: 0x24660, offset: 0x24660, size: 0x8, addend: 0x0, symName: __ZNSt3__111__wrap_iterIPP7AccountEC2B8ue170006ES3_, symObjAddr: 0x17928, symBinAddr: 0x100018678, symSize: 0x20 }
  - { offsetInCU: 0x24698, offset: 0x24698, size: 0x8, addend: 0x0, symName: __ZNKSt3__111__wrap_iterIPP7AccountE4baseB8ue170006Ev, symObjAddr: 0x17990, symBinAddr: 0x1000186E0, symSize: 0x18 }
  - { offsetInCU: 0x246BE, offset: 0x246BE, size: 0x8, addend: 0x0, symName: __ZN14AccountStorageD2Ev, symObjAddr: 0x179A8, symBinAddr: 0x1000186F8, symSize: 0x2C }
  - { offsetInCU: 0x246EA, offset: 0x246EA, size: 0x8, addend: 0x0, symName: __ZNSt3__16vectorIP7AccountNS_9allocatorIS2_EEED1B8ue170006Ev, symObjAddr: 0x179D4, symBinAddr: 0x100018724, symSize: 0x2C }
  - { offsetInCU: 0x24714, offset: 0x24714, size: 0x8, addend: 0x0, symName: __ZNSt3__16vectorIP7AccountNS_9allocatorIS2_EEED2B8ue170006Ev, symObjAddr: 0x17A00, symBinAddr: 0x100018750, symSize: 0x3C }
  - { offsetInCU: 0x2473E, offset: 0x2473E, size: 0x8, addend: 0x0, symName: __ZNSt3__16vectorIP7AccountNS_9allocatorIS2_EEE16__destroy_vectorC1B8ue170006ERS5_, symObjAddr: 0x17A3C, symBinAddr: 0x10001878C, symSize: 0x34 }
  - { offsetInCU: 0x24777, offset: 0x24777, size: 0x8, addend: 0x0, symName: __ZNSt3__16vectorIP7AccountNS_9allocatorIS2_EEE16__destroy_vectorclB8ue170006Ev, symObjAddr: 0x17A70, symBinAddr: 0x1000187C0, symSize: 0x90 }
  - { offsetInCU: 0x2479D, offset: 0x2479D, size: 0x8, addend: 0x0, symName: __ZNSt3__16vectorIP7AccountNS_9allocatorIS2_EEE16__destroy_vectorC2B8ue170006ERS5_, symObjAddr: 0x17B00, symBinAddr: 0x100018850, symSize: 0x20 }
  - { offsetInCU: 0x247D6, offset: 0x247D6, size: 0x8, addend: 0x0, symName: __ZNSt3__16vectorIP7AccountNS_9allocatorIS2_EEE7__clearB8ue170006Ev, symObjAddr: 0x17B20, symBinAddr: 0x100018870, symSize: 0x28 }
  - { offsetInCU: 0x247FC, offset: 0x247FC, size: 0x8, addend: 0x0, symName: __ZNSt3__16vectorIP7AccountNS_9allocatorIS2_EEE22__base_destruct_at_endB8ue170006EPS2_, symObjAddr: 0x17B48, symBinAddr: 0x100018898, symSize: 0xA0 }
  - { offsetInCU: 0x24840, offset: 0x24840, size: 0x8, addend: 0x0, symName: __ZN11StoreVectorD2Ev, symObjAddr: 0x17BE8, symBinAddr: 0x100018938, symSize: 0xA0 }
  - { offsetInCU: 0x2486A, offset: 0x2486A, size: 0x8, addend: 0x0, symName: __ZN11FileHandlerD2Ev, symObjAddr: 0x17C88, symBinAddr: 0x1000189D8, symSize: 0x134 }
  - { offsetInCU: 0x24894, offset: 0x24894, size: 0x8, addend: 0x0, symName: __ZNSt3__113basic_fstreamIcNS_11char_traitsIcEEE5closeEv, symObjAddr: 0x17DBC, symBinAddr: 0x100018B0C, symSize: 0x58 }
  - { offsetInCU: 0x248BC, offset: 0x248BC, size: 0x8, addend: 0x0, symName: __ZNSt3__112basic_stringIcNS_11char_traitsIcEENS_9allocatorIcEEEC2B8ue170006ILi0EEEPKc, symObjAddr: 0x17E14, symBinAddr: 0x100018B64, symSize: 0x58 }
  - { offsetInCU: 0x248FB, offset: 0x248FB, size: 0x8, addend: 0x0, symName: __ZN14FunctionalPageI10SignInPageEC2ERKNSt3__112basic_stringIcNS2_11char_traitsIcEENS2_9allocatorIcEEEEPS0_, symObjAddr: 0x17E6C, symBinAddr: 0x100018BBC, symSize: 0x64 }
  - { offsetInCU: 0x24941, offset: 0x24941, size: 0x8, addend: 0x0, symName: __ZN7CommandC2Ev, symObjAddr: 0x17ED0, symBinAddr: 0x100018C20, symSize: 0x24 }
  - { offsetInCU: 0x2496D, offset: 0x2496D, size: 0x8, addend: 0x0, symName: __ZN14FunctionalPageI10SignUpPageEC2ERKNSt3__112basic_stringIcNS2_11char_traitsIcEENS2_9allocatorIcEEEEPS0_, symObjAddr: 0x17EF4, symBinAddr: 0x100018C44, symSize: 0x64 }
  - { offsetInCU: 0x249B3, offset: 0x249B3, size: 0x8, addend: 0x0, symName: __ZN14FunctionalPageI10SearchPageEC2ERKNSt3__112basic_stringIcNS2_11char_traitsIcEENS2_9allocatorIcEEEEPS0_, symObjAddr: 0x17F58, symBinAddr: 0x100018CA8, symSize: 0x64 }
  - { offsetInCU: 0x249F9, offset: 0x249F9, size: 0x8, addend: 0x0, symName: __ZN14FunctionalPageI14CategoriesPageEC2ERKNSt3__112basic_stringIcNS2_11char_traitsIcEENS2_9allocatorIcEEEEPS0_, symObjAddr: 0x17FBC, symBinAddr: 0x100018D0C, symSize: 0x64 }
  - { offsetInCU: 0x24A3F, offset: 0x24A3F, size: 0x8, addend: 0x0, symName: __ZN14FunctionalPageI16OrderHistoryPageEC2ERKNSt3__112basic_stringIcNS2_11char_traitsIcEENS2_9allocatorIcEEEEPS0_, symObjAddr: 0x18020, symBinAddr: 0x100018D70, symSize: 0x64 }
  - { offsetInCU: 0x24A85, offset: 0x24A85, size: 0x8, addend: 0x0, symName: __ZN14FunctionalPageI13FavoritesPageEC2ERKNSt3__112basic_stringIcNS2_11char_traitsIcEENS2_9allocatorIcEEEEPS0_, symObjAddr: 0x18084, symBinAddr: 0x100018DD4, symSize: 0x64 }
  - { offsetInCU: 0x24ACB, offset: 0x24ACB, size: 0x8, addend: 0x0, symName: __ZN14FunctionalPageI15AccountInfoPageEC2ERKNSt3__112basic_stringIcNS2_11char_traitsIcEENS2_9allocatorIcEEEEPS0_, symObjAddr: 0x180E8, symBinAddr: 0x100018E38, symSize: 0x64 }
  - { offsetInCU: 0x24B11, offset: 0x24B11, size: 0x8, addend: 0x0, symName: __ZN14FunctionalPageI20ModifyRestaurantPageEC2ERKNSt3__112basic_stringIcNS2_11char_traitsIcEENS2_9allocatorIcEEEEPS0_, symObjAddr: 0x1814C, symBinAddr: 0x100018E9C, symSize: 0x64 }
  - { offsetInCU: 0x24B57, offset: 0x24B57, size: 0x8, addend: 0x0, symName: __ZN14FunctionalPageI25CategoriesRestaurantsPageEC2ERKNSt3__112basic_stringIcNS2_11char_traitsIcEENS2_9allocatorIcEEEEPS0_, symObjAddr: 0x181B0, symBinAddr: 0x100018F00, symSize: 0x64 }
...
